; ---- dump: romca.bin
; org
0000: 8000: 50 80  CRTB B00,C80     B00 := 0x80          
0002: 8001: 70 89  CRTA A00,C89     A00 := 0x89          
0004: 8002: bd 00  COMx C0            C0                 
  ; Level 4, jump 8089, old PC (Level 3?) == 8003
0006: 8003: 7f 03  CRTA A15,C03     A15 := 0x03          
0008: 8004: 72 aa  CRTA A02,Caa     A02 := 0xaa          
000a: 8005: 52 aa  CRTB B02,Caa     B02 := 0xaa          
000c: 8006: d7 22  OREA A2,B2       A2 := A2 xor B2      
000e: 8007: f6 22  ORA A2,B2        A2 := A2 or B2       
0010: 8008: b7 22  ANDB A2,B2       B2 := A2 and B2      
0012: 8009: c7 22  ORE A2,B2        A2 xor B2            
0014: 800a: 78 17  CRTA A08,C17     A08 := 0x17          
0016: 800b: 62 51  SAD0 D1,51       br D1=0,8051         
0018: 800c: 73 aa  CRTA A03,Caa     A03 := 0xaa          
001a: 800d: 53 aa  CRTB B03,Caa     B03 := 0xaa          
001c: 800e: c9 aa  SEDI aa          set DI 0xaa          
001e: 800f: c8 55  REDI 55          reset DI 0x55        
0020: 8010: a3 3f  SDIA A3          A3 <-> DI            
0022: 8011: b3 3f  SDIB B3          B3 <-> DI            
0024: 8012: c7 33  ORE A3,B3        A3 xor B3            
0026: 8013: 78 27  CRTA A08,C27     A08 := 0x27          
0028: 8014: 62 51  SAD0 D1,51       br D1=0,8051         
002a: 8015: 74 00  CRTA A04,C00     A04 := 0x00          
002c: 8016: 54 00  CRTB B04,C00     B04 := 0x00          
002e: 8017: 75 00  CRTA A05,C00     A05 := 0x00          
0030: 8018: 55 00  CRTB B05,C00     B05 := 0x00          
0032: 8019: a5 4f  ICL L4           L4++                 
0034: 801a: e5 5f  DCL L5           L5--                 
0036: 801b: 62 19  SAD0 D1,19       br D1=0,8019         
0038: 801c: f5 4f  VRL L4           L4==0                
003a: 801d: 78 37  CRTA A08,C37     A08 := 0x37          
003c: 801e: 62 51  SAD0 D1,51       br D1=0,8051         
003e: 801f: 56 55  CRTB B06,C55     B06 := 0x55          
0040: 8020: e9 66  TBA A6,B6        A6 := B6             
0042: 8021: c4 60  SLSA A6,C0       A6 << DI0            
0044: 8022: c3 60  SLDA A6,C0       A6 >> DI0            
0046: 8023: 8b 6f  ROTA A6          A6.M <-> A6.P        
0048: 8024: 8b 6f  ROTA A6          A6.M <-> A6.P        
004a: 8025: d8 66  TAB A6,B6        B6 := A6             
004c: 8026: c7 66  ORE A6,B6        A6 xor B6            
004e: 8027: 78 47  CRTA A08,C47     A08 := 0x47          
0050: 8028: 62 51  SAD0 D1,51       br D1=0,8051         
0052: 8029: d4 60  SLSA B6          B6 << DI0            
0054: 802a: 9e 6f  VRB B6           B6==0                
0056: 802b: 62 20  SAD0 D1,20       br D1=0,8020         
0058: 802c: bd 30  COMx C3            C3                 
005a: 802d: aa 90  ENTL L9          name -> L9.A, type->L9.B 
005c: 802e: 5a fd  CRTB B10,Cfd     B10 := 0xfd          
005e: 802f: a7 9a  ANDA A9,B10      A9 := A9 and B10     
0060: 8030: f5 9f  VRL L9           L9==0                
0062: 8031: 78 57  CRTA A08,C57     A08 := 0x57          
0064: 8032: 62 51  SAD0 D1,51       br D1=0,8051         
0066: 8033: b8 a8  EDA A10          data.B -> A10        
0068: 8034: c7 a9  ORE A10,B9       A10 xor B9           
006a: 8035: 62 51  SAD0 D1,51       br D1=0,8051         
006c: 8036: 77 55  CRTA A07,C55     A07 := 0x55          
006e: 8037: 57 aa  CRTB B07,Caa     B07 := 0xaa          
0070: 8038: 58 00  CRTB B08,C00     B08 := 0x00          
0072: 8039: 96 32  ADDA A3,B2       A3 := A3+B2+DI0      
0074: 803a: a6 23  ADDB A2,B3       B3 := A2+B3+DI0      
0076: 803b: c6 43  SOTA A4,B3       A4 := A4-B3+DI0      
0078: 803c: d6 34  SOTB A3,B4       B4 := A3-B4+DI0      
007a: 803d: 96 54  ADDA A5,B4       A5 := A5+B4+DI0      
007c: 803e: a6 45  ADDB A4,B5       B5 := A4+B5+DI0      
007e: 803f: c6 75  SOTA A7,B5       A7 := A7-B5+DI0      
0080: 8040: d6 57  SOTB A5,B7       B7 := A5-B7+DI0      
0082: 8041: 96 87  ADDA A8,B7       A8 := A8+B7+DI0      
0084: 8042: a6 78  ADDB A7,B8       B8 := A7+B8+DI0      
0086: 8043: c6 98  SOTA A9,B8       A9 := A9-B8+DI0      
0088: 8044: d6 89  SOTB A8,B9       B9 := A8-B9+DI0      
008a: 8045: 96 a9  ADDA A10,B9      A10 := A10+B9+DI0    
008c: 8046: a6 9a  ADDB A9,B10      B10 := A9+B10+DI0    
008e: 8047: 7c 52  CRTA A12,C52     A12 := 0x52          
0090: 8048: d6 ca  SOTB A12,B10     B10 := A12-B10+DI0   
0092: 8049: c6 0a  SOTA A0,B10      A0 := A0-B10+DI0     
0094: 804a: 5a 92  CRTB B10,C92     B10 := 0x92          
0096: 804b: c7 0a  ORE A0,B10       A0 xor B10           
0098: 804c: 78 67  CRTA A08,C67     A08 := 0x67          
009a: 804d: 62 51  SAD0 D1,51       br D1=0,8051         
009c: 804e: de 11  MLIP M1,L1       L1 := [M1++]         
  !addr
009e: 804f: 80 53                                        
00a0: 8050: 78 77  CRTA A08,C77     A08 := 0x77          
00a2: 8051: 58 40  CRTB B08,C40     B08 := 0x40          
00a4: 8052: 00 86  SAI 0086         jump 8086            
00a6: 8053: de 12  MLIP M1,L2       L2 := [M1++]         
  !value
00a8: 8054: 00 20  SAI 0020         jump 8020            
00aa: 8055: ee 22  LMIP M2,L2       [M2++] := L2         
00ac: 8056: ed 22  LMIM M2,L2       [M2--] := L2         
00ae: 8057: de 23  MLIP M2,L3       L3 := [M2++]         
00b0: 8058: 74 00  CRTA A04,C00     A04 := 0x00          
00b2: 8059: 54 21  CRTB B04,C21     B04 := 0x21          
00b4: 805a: c7 43  ORE A4,B3        A4 xor B3            
00b6: 805b: 62 50  SAD0 D1,50       br D1=0,8050         
00b8: 805c: c7 34  ORE A3,B4        A3 xor B4            
00ba: 805d: 62 50  SAD0 D1,50       br D1=0,8050         
00bc: 805e: c7 24  ORE A2,B4        A2 xor B4            
00be: 805f: 62 50  SAD0 D1,50       br D1=0,8050         
00c0: 8060: dd 23  MLIM M2,L3       L3 := [M2--]         
00c2: 8061: be 4f  DCB B4           B4--                 
00c4: 8062: c7 43  ORE A4,B3        A4 xor B3            
00c6: 8063: 62 50  SAD0 D1,50       br D1=0,8050         
00c8: 8064: c7 34  ORE A3,B4        A3 xor B4            
00ca: 8065: 62 50  SAD0 D1,50       br D1=0,8050         
00cc: 8066: e2 22  LPMIP M2,L2      [M2++] := ++L2       
00ce: 8067: 95 4f  ICB B4           B4++                 
00d0: 8068: c7 24  ORE A2,B4        A2 xor B4            
00d2: 8069: 62 50  SAD0 D1,50       br D1=0,8050         
00d4: 806a: dd 23  MLIM M2,L3       L3 := [M2--]         
00d6: 806b: dd 23  MLIM M2,L3       L3 := [M2--]         
00d8: 806c: 95 4f  ICB B4           B4++                 
00da: 806d: c7 34  ORE A3,B4        A3 xor B4            
00dc: 806e: 62 50  SAD0 D1,50       br D1=0,8050         
00de: 806f: a0 31  ICD1 D1,L1       L1++ if D1=1         
00e0: 8070: 00 73  SAI 0073         jump 8073            
00e2: 8071: a0 21  ICD0 D1,L1       L1++ if D1=0         
00e4: 8072: 00 75  SAI 0075         jump 8075            
00e6: 8073: 78 87  CRTA A08,C87     A08 := 0x87          
00e8: 8074: 00 51  SAI 0051         jump 8051            
00ea: 8075: 5e ff  CRTB B14,Cff     B14 := 0xff          
00ec: 8076: 7e ff  CRTA A14,Cff     A14 := 0xff          
00ee: 8077: a0 ce  ICD0 D6,L14      L14++ if D6=0        
00f0: 8078: f5 ef  VRL L14          L14==0               
00f2: 8079: 62 73  SAD0 D1,73       br D1=0,8073         
00f4: 807a: ae ff  DCA A15          A15--                
00f6: 807b: 62 04  SAD0 D1,04       br D1=0,8004         
  ; loop in Level 3:       
00f8: 807c: bd 00  COMx C0            C0                 
00fa: 807d: 66 80  SAD0 D3,80       br D3=0,8080         
00fc: 807e: 70 a8  CRTA A00,Ca8     A00 := 0xa8          
00fe: 807f: 00 87  SAI 0087         jump 8087            
0100: 8080: de 18  MLIP M1,L8       L8 := [M1++]         
  !value
0102: 8081: 40 01  SADE 0 01                             
0104: 8082: e5 7f  DCL L7           L7--                 
0106: 8083: e9 77  TBA A7,B7        A7 := B7             
0108: 8084: f8 87  TBAP A8,B7       A8.P := B7.P         
010a: 8085: e8 78  TABM A7,B8       B8.M := A7.M         
010c: 8086: 70 ad  CRTA A00,Cad     A00 := 0xad          
010e: 8087: 50 80  CRTB B00,C80     B00 := 0x80          
0110: 8088: 00 7c  SAI 007c         jump 807c            
  ; from start, now Level 4
  ; memory test?
0112: 8089: 7f 00  CRTA A15,C00     A15 := 0x00          
0114: 808a: a8 ff  AMI A15,A15      [A15] := A15         
  ; [0] := A15 := 0
0116: 808b: b1 f4  ESE A15          sel.B <- [A15]       
  ; select GOINO internal controller
0118: 808c: 5a 40  CRTB B10,C40     B10 := 0x40          
011a: 808d: 7a ff  CRTA A10,Cff     A10 := 0xff          
011c: 808e: fc a0  CAE L10          cmd.W <- L10         
  ; RETIN request timer interrupt
011e: 808f: ae ff  DCA A15          A15--                
0120: 8090: 62 8e  SAD0 D1,8e       br D1=0,808e         
  ; wait       
0122: 8091: bd 10  COMx C1            C1                 
0124: 8092: c9 90  SEDI 90          set DI 0x90          
0126: 8093: de 03  MLIP M0,L3       L3 := [M0++]         
  !value
0128: 8094: 00 ff  SAI 00ff         jump 80ff            
012a: 8095: de 04  MLIP M0,L4       L4 := [M0++]         
  !value
012c: 8096: 00 00  SAI 0000         jump 8000            
012e: 8097: 75 04  CRTA A05,C04     A05 := 0x04          
0130: 8098: c9 08  SEDI 08          set DI 0x08          
0132: 8099: e1 43  LMI M4,L3        [M4] := L3           
0134: 809a: d1 46  MLI M4,L6        L6 := [M4]           
0136: 809b: ba 33  SAB A3,B3        A3 <-> B3            
0138: 809c: e1 43  LMI M4,L3        [M4] := L3           
013a: 809d: d1 49  MLI M4,L9        L9 := [M4]           
013c: 809e: ba 33  SAB A3,B3        A3 <-> B3            
013e: 809f: ba 66  SAB A6,B6        A6 <-> B6            
0140: 80a0: c8 08  REDI 08          reset DI 0x08        
0142: 80a1: c7 69  ORE A6,B9        A6 xor B9            
0144: 80a2: 62 b7  SAD0 D1,b7       br D1=0,80b7         
0146: 80a3: c7 96  ORE A9,B6        A9 xor B6            
0148: 80a4: 62 b7  SAD0 D1,b7       br D1=0,80b7         
014a: 80a5: de 02  MLIP M0,L2       L2 := [M0++]         
014c: 80a6: a8 80  AMI M8,A0        [M8] := A0           
014e: 80a7: 00 ba  SAI 00ba         jump 80ba            
0150: 80a8: 6e ac  SAD0 D7,ac       br D7=0,80ac         
0152: 80a9: 7f 0e  CRTA A15,C0e     A15 := 0x0e          
0154: 80aa: 89 f4  BMI A15,A4       [A15] := A4          
0156: 80ab: c8 80  REDI 80          reset DI 0x80        
0158: 80ac: 69 b0  SAD1 D4,b0       br D4=1,80b0         
015a: 80ad: de 02  MLIP M0,L2       L2 := [M0++]         
015c: 80ae: b6 80  SOT A8,B0        A8-B0+DI0            
015e: 80af: 01 c0  SAI 01c0         jump 81c0            
0160: 80b0: c8 07  REDI 07          reset DI 0x07        
0162: 80b1: a6 54  ADDB A5,B4       B4 := A5+B4+DI0      
0164: 80b2: 60 98  SAD0 D0,98       br D0=0,8098         
0166: 80b3: de 0b  MLIP M0,L11      L11 := [M0++]        
  !value
0168: 80b4: 40 00  SADE 0 00                             
016a: 80b5: 02 b6  SAI 02b6         jump 82b6            
016c: 80b6: 00 b6  SAI 00b6         jump 80b6            
016e: 80b7: de 02  MLIP M0,L2       L2 := [M0++]         
  !value
0170: 80b8: ac 80                                        
0172: 80b9: 01 8b  SAI 018b         jump 818b            
0174: 80ba: d8 55  TAB A5,B5        B5 := A5             
0176: 80bb: d3 50  SLDB B5          B5 >> DI0            
0178: 80bc: e9 74  TBA A7,B4        A7 := B4             
017a: 80bd: d8 77  TAB A7,B7        B7 := A7             
017c: 80be: 77 00  CRTA A07,C00     A07 := 0x00          
017e: 80bf: de 08  MLIP M0,L8       L8 := [M0++]         
  !value
0180: 80c0: 01 fe  SAI 01fe         jump 81fe            
0182: 80c1: de 06  MLIP M0,L6       L6 := [M0++]         
  !value
0184: 80c2: 00 00  SAI 0000         jump 8000            
0186: 80c3: de 0a  MLIP M0,L10      L10 := [M0++]        
  !value
0188: 80c4: 00 00  SAI 0000         jump 8000            
018a: 80c5: de 0b  MLIP M0,L11      L11 := [M0++]        
  !value
018c: 80c6: 00 00  SAI 0000         jump 8000            
018e: 80c7: d1 79  MLI M7,L9        L9 := [M7]           
0190: 80c8: d8 7e  TAB A7,B14       B14 := A7            
0192: 80c9: d4 e0  SLSA B14         B14 << DI0           
0194: 80ca: e9 ee  TBA A14,B14      A14 := B14           
0196: 80cb: 95 ef  ICB B14          B14++                
0198: 80cc: e7 e9  OREB A14,B9      B9 := A14 xor B9     
019a: 80cd: c3 b0  SLDA A11,C0      A11 >> DI0           
019c: 80ce: 96 69  ADDA A6,B9       A6 := A6+B9+DI0      
019e: 80cf: a6 b6  ADDB A11,B6      B6 := A11+B6+DI0     
01a0: 80d0: c4 b1  SLSA A11,C1      A11 << DI0           
01a2: 80d1: d7 9e  OREA A9,B14      A9 := A9 xor B14     
01a4: 80d2: d3 b0  SLDB B11         B11 >> DI0           
01a6: 80d3: a6 9a  ADDB A9,B10      B10 := A9+B10+DI0    
01a8: 80d4: 96 ab  ADDA A10,B11     A10 := A10+B11+DI0   
01aa: 80d5: d4 b1  SLSA B11         B11 << DI0           
01ac: 80d6: a5 7f  ICL L7           L7++                 
01ae: 80d7: e5 8f  DCL L8           L8--                 
01b0: 80d8: 62 c7  SAD0 D1,c7       br D1=0,80c7         
01b2: 80d9: 58 40  CRTB B08,C40     B08 := 0x40          
01b4: 80da: f9 87  TBAM A8,B7       A8.M := B7.M         
01b6: 80db: e8 88  TABM A8,B8       B8.M := A8.M         
01b8: 80dc: 78 02  CRTA A08,C02     A08 := 0x02          
01ba: 80dd: f8 87  TBAP A8,B7       A8.P := B7.P         
01bc: 80de: d3 80  SLDB B8          B8 >> DI0            
01be: 80df: c8 10  REDI 10          reset DI 0x10        
01c0: 80e0: de 79  MLIP M7,L9       L9 := [M7++]         
01c2: 80e1: c8 01  REDI 01          reset DI 0x01        
01c4: 80e2: c7 9a  ORE A9,B10       A9 xor B10           
01c6: 80e3: 62 ee  SAD0 D1,ee       br D1=0,80ee         
01c8: 80e4: c9 01  SEDI 01          set DI 0x01          
01ca: 80e5: c7 69  ORE A6,B9        A6 xor B9            
01cc: 80e6: 62 ee  SAD0 D1,ee       br D1=0,80ee         
01ce: 80e7: ba 66  SAB A6,B6        A6 <-> B6            
01d0: 80e8: ba aa  SAB A10,B10      A10 <-> B10          
01d2: 80e9: 8e 7f  VRA A7           A7==0                
01d4: 80ea: 62 e0  SAD0 D1,e0       br D1=0,80e0         
01d6: 80eb: be 5f  DCB B5           B5--                 
01d8: 80ec: 62 bf  SAD0 D1,bf       br D1=0,80bf         
01da: 80ed: c9 10  SEDI 10          set DI 0x10          
01dc: 80ee: d4 81  SLSA B8          B8 << DI0            
01de: 80ef: bc 02  SLL L0,L2        L0 <-> L2            
01e0: 80f0: 01 04  SAI 0104         jump 8104            
01e2: 80f1: 02 10  SAI 0210         jump 8210            
01e4: 80f2: 04 01  SAI 0401         jump 8401            
01e6: 80f3: 08 80  SAI 0880         jump 8880            
01e8: 80f4: 10 20  SAI 1020         jump 9020            
01ea: 80f5: 20 08  AMD A00,C08      [08] := A0           
01ec: 80f6: 40 02  SADE 0 02                             
01ee: 80f7: 80 40                                        
01f0: 80f8: c7 78  ORE A7,B8        A7 xor B8            
01f2: 80f9: 62 fc  SAD0 D1,fc       br D1=0,80fc         
01f4: 80fa: 77 30  CRTA A07,C30     A07 := 0x30          
01f6: 80fb: 95 7f  ICB B7           B7++                 
01f8: 80fc: ed f7  LMIM A15,L7      [A15--] := L7        
01fa: 80fd: ae ff  DCA A15          A15--                
01fc: 80fe: ee f6  LMIP A15,L6      [A15++] := L6        
01fe: 80ff: 03 f1  SAI 03f1         jump 83f1            
  ; level 1 write ???
0200: 8100: bd 00  COMx C0            C0                 
0202: 8101: ad 3f  EDC L3           L3.MMM--, ECOF if zero 
0204: 8102: 94 40  MEIP M4          data.B <- [M4++]     
0206: 8103: 01 00  SAI 0100         jump 8100            
  ; level 1 read ???
0208: 8104: bd 00  COMx C0            C0                 
020a: 8105: ad 3f  EDC L3           L3.MMM--, ECOF if zero 
020c: 8106: a2 48  EMIP M4          [M4++] <- data.B     
020e: 8107: 01 04  SAI 0104         jump 8104            
  ; level 2 longer command ???
0210: 8108: b3 3f  SDIB B3          B3 <-> DI            
0212: 8109: ba 33  SAB A3,B3        A3 <-> B3            
0214: 810a: ab 5f  AZAM A5          A5.M := 0            
0216: 810b: bd 00  COMx C0            C0                 
0218: 810c: 94 50  MEIP M5          data.B <- [M5++]     
021a: 810d: bd 00  COMx C0            C0                 
021c: 810e: 94 50  MEIP M5          data.B <- [M5++]     
021e: 810f: bd 00  COMx C0            C0                 
0220: 8110: 94 50  MEIP M5          data.B <- [M5++]     
0222: 8111: bd 00  COMx C0            C0                 
0224: 8112: 94 50  MEIP M5          data.B <- [M5++]     
0226: 8113: bd 00  COMx C0            C0                 
0228: 8114: bd 70  COMx C7            C7                 
022a: 8115: 94 50  MEIP M5          data.B <- [M5++]     
022c: 8116: bd 00  COMx C0            C0                 
022e: 8117: 94 50  MEIP M5          data.B <- [M5++]     
0230: 8118: bd 00  COMx C0            C0                 
0232: 8119: bd 80  COMx C8            C8                 
0234: 811a: bd 00  COMx C0            C0                 
0236: 811b: 94 50  MEIP M5          data.B <- [M5++]     
0238: 811c: ba 33  SAB A3,B3        A3 <-> B3            
023a: 811d: b2 3f  ETIB B3          type.B -> B3         
023c: 811e: b3 3f  SDIB B3          B3 <-> DI            
023e: 811f: 61 08  SAD1 D0,08       br D0=1,8108         
0240: 8120: b3 3f  SDIB B3          B3 <-> DI            
0242: 8121: ba 33  SAB A3,B3        A3 <-> B3            
0244: 8122: 91 53  MAI M5,A3        A3 := [M5]           
0246: 8123: b3 3f  SDIB B3          B3 <-> DI            
0248: 8124: 6d 4c  SAD1 D6,4c       br D6=1,814c         
024a: 8125: 85 3f  ICA A3           A3++                 
024c: 8126: b3 3f  SDIB B3          B3 <-> DI            
024e: 8127: bd 00  COMx C0            C0                 
0250: 8128: b3 3f  SDIB B3          B3 <-> DI            
0252: 8129: ae 3f  DCA A3           A3--                 
0254: 812a: 63 70  SAD1 D1,70       br D1=1,8170         
  ; write 16 bytes   
0256: 812b: 94 40  MEIP M4          data.B <- [M4++]     
0258: 812c: b3 3f  SDIB B3          B3 <-> DI            
025a: 812d: bd 00  COMx C0            C0                 
025c: 812e: 94 40  MEIP M4          data.B <- [M4++]     
025e: 812f: bd 00  COMx C0            C0                 
0260: 8130: 94 40  MEIP M4          data.B <- [M4++]     
0262: 8131: bd 00  COMx C0            C0                 
0264: 8132: 94 40  MEIP M4          data.B <- [M4++]     
0266: 8133: bd 00  COMx C0            C0                 
0268: 8134: 94 40  MEIP M4          data.B <- [M4++]     
026a: 8135: bd 00  COMx C0            C0                 
026c: 8136: 94 40  MEIP M4          data.B <- [M4++]     
026e: 8137: bd 00  COMx C0            C0                 
0270: 8138: 94 40  MEIP M4          data.B <- [M4++]     
0272: 8139: bd 00  COMx C0            C0                 
0274: 813a: 94 40  MEIP M4          data.B <- [M4++]     
0276: 813b: bd 00  COMx C0            C0                 
0278: 813c: 94 40  MEIP M4          data.B <- [M4++]     
027a: 813d: bd 00  COMx C0            C0                 
027c: 813e: 94 40  MEIP M4          data.B <- [M4++]     
027e: 813f: bd 00  COMx C0            C0                 
0280: 8140: 94 40  MEIP M4          data.B <- [M4++]     
0282: 8141: bd 00  COMx C0            C0                 
0284: 8142: 94 40  MEIP M4          data.B <- [M4++]     
0286: 8143: bd 00  COMx C0            C0                 
0288: 8144: 94 40  MEIP M4          data.B <- [M4++]     
028a: 8145: bd 00  COMx C0            C0                 
028c: 8146: 94 40  MEIP M4          data.B <- [M4++]     
028e: 8147: bd 00  COMx C0            C0                 
0290: 8148: 94 40  MEIP M4          data.B <- [M4++]     
0292: 8149: bd 00  COMx C0            C0                 
0294: 814a: 94 40  MEIP M4          data.B <- [M4++]     
0296: 814b: 01 27  SAI 0127         jump 8127            
  ; read 16 bytes
0298: 814c: b3 3f  SDIB B3          B3 <-> DI            
029a: 814d: bd 00  COMx C0            C0                 
029c: 814e: a2 48  EMIP M4          [M4++] <- data.B     
029e: 814f: bd 00  COMx C0            C0                 
02a0: 8150: a2 48  EMIP M4          [M4++] <- data.B     
02a2: 8151: bd 00  COMx C0            C0                 
02a4: 8152: a2 48  EMIP M4          [M4++] <- data.B     
02a6: 8153: bd 00  COMx C0            C0                 
02a8: 8154: a2 48  EMIP M4          [M4++] <- data.B     
02aa: 8155: bd 00  COMx C0            C0                 
02ac: 8156: a2 48  EMIP M4          [M4++] <- data.B     
02ae: 8157: bd 00  COMx C0            C0                 
02b0: 8158: a2 48  EMIP M4          [M4++] <- data.B     
02b2: 8159: bd 00  COMx C0            C0                 
02b4: 815a: a2 48  EMIP M4          [M4++] <- data.B     
02b6: 815b: bd 00  COMx C0            C0                 
02b8: 815c: a2 48  EMIP M4          [M4++] <- data.B     
02ba: 815d: bd 00  COMx C0            C0                 
02bc: 815e: a2 48  EMIP M4          [M4++] <- data.B     
02be: 815f: bd 00  COMx C0            C0                 
02c0: 8160: a2 48  EMIP M4          [M4++] <- data.B     
02c2: 8161: bd 00  COMx C0            C0                 
02c4: 8162: a2 48  EMIP M4          [M4++] <- data.B     
02c6: 8163: bd 00  COMx C0            C0                 
02c8: 8164: a2 48  EMIP M4          [M4++] <- data.B     
02ca: 8165: bd 00  COMx C0            C0                 
02cc: 8166: a2 48  EMIP M4          [M4++] <- data.B     
02ce: 8167: bd 00  COMx C0            C0                 
02d0: 8168: a2 48  EMIP M4          [M4++] <- data.B     
02d2: 8169: bd 00  COMx C0            C0                 
02d4: 816a: a2 48  EMIP M4          [M4++] <- data.B     
02d6: 816b: bd 00  COMx C0            C0                 
02d8: 816c: b3 3f  SDIB B3          B3 <-> DI            
02da: 816d: ae 3f  DCA A3           A3--                 
02dc: 816e: a2 48  EMIP M4          [M4++] <- data.B     
02de: 816f: 62 4c  SAD0 D1,4c       br D1=0,814c         
02e0: 8170: b3 3f  SDIB B3          B3 <-> DI            
02e2: 8171: bd 70  COMx C7            C7                 
02e4: 8172: bd 00  COMx C0            C0                 
02e6: 8173: b3 3f  SDIB B3          B3 <-> DI            
02e8: 8174: 6b 84  SAD1 D5,84       br D5=1,8184         
02ea: 8175: b3 3f  SDIB B3          B3 <-> DI            
02ec: 8176: bd 00  COMx C0            C0                 
02ee: 8177: b3 3f  SDIB B3          B3 <-> DI            
02f0: 8178: bd 80  COMx C8            C8                 
02f2: 8179: 66 81  SAD0 D3,81       br D3=0,8181         
02f4: 817a: 64 80  SAD0 D2,80       br D2=0,8180         
02f6: 817b: 73 80  CRTA A03,C80     A03 := 0x80          
02f8: 817c: ba 44  SAB A4,B4        A4 <-> B4            
02fa: 817d: e7 34  OREB A3,B4       B4 := A3 xor B4      
02fc: 817e: ba 44  SAB A4,B4        A4 <-> B4            
02fe: 817f: 60 81  SAD0 D0,81       br D0=0,8181         
0300: 8180: be 4f  DCB B4           B4--                 
0302: 8181: b3 3f  SDIB B3          B3 <-> DI            
0304: 8182: bd 00  COMx C0            C0                 
0306: 8183: 01 0a  SAI 010a         jump 810a            
0308: 8184: b3 3f  SDIB B3          B3 <-> DI            
030a: 8185: e9 35  TBA A3,B5        A3 := B5             
030c: 8186: e9 46  TBA A4,B6        A4 := B6             
030e: 8187: d8 64  TAB A6,B4        B4 := A6             
0310: 8188: bd 00  COMx C0            C0                 
0312: 8189: bd 80  COMx C8            C8                 
0314: 818a: 98 4c  MAIP M4,A12      A12 := [M4++]        
0316: 818b: c9 50  SEDI 50          set DI 0x50          
0318: 818c: c9 20  SEDI 20          set DI 0x20          
031a: 818d: d8 47  TAB A4,B7        B7 := A4             
031c: 818e: e9 74  TBA A7,B4        A7 := B4             
031e: 818f: ba 77  SAB A7,B7        A7 <-> B7            
0320: 8190: d8 58  TAB A5,B8        B8 := A5             
0322: 8191: 78 00  CRTA A08,C00     A08 := 0x00          
0324: 8192: d8 36  TAB A3,B6        B6 := A3             
0326: 8193: e9 63  TBA A6,B3        A6 := B3             
0328: 8194: 6c 96  SAD0 D6,96       br D6=0,8196         
032a: 8195: ba 66  SAB A6,B6        A6 <-> B6            
032c: 8196: 6a ab  SAD0 D5,ab       br D5=0,81ab         
032e: 8197: ee 76  LMIP M7,L6       [M7++] := L6         
0330: 8198: 6d 9a  SAD1 D6,9a       br D6=1,819a         
0332: 8199: ba 66  SAB A6,B6        A6 <-> B6            
0334: 819a: 95 6f  ICB B6           B6++                 
0336: 819b: ae 6f  DCA A6           A6--                 
0338: 819c: 8e 7f  VRA A7           A7==0                
033a: 819d: 62 a0  SAD0 D1,a0       br D1=0,81a0         
033c: 819e: 95 6f  ICB B6           B6++                 
033e: 819f: ae 6f  DCA A6           A6--                 
0340: 81a0: 6d a2  SAD1 D6,a2       br D6=1,81a2         
0342: 81a1: ba 66  SAB A6,B6        A6 <-> B6            
0344: 81a2: e5 8f  DCL L8           L8--                 
0346: 81a3: 6a b2  SAD0 D5,b2       br D5=0,81b2         
0348: 81a4: 62 97  SAD0 D1,97       br D1=0,8197         
034a: 81a5: de 08  MLIP M0,L8       L8 := [M0++]         
034c: 81a6: 01 00  SAI 0100         jump 8100            
034e: 81a7: e5 8f  DCL L8           L8--                 
0350: 81a8: 62 a7  SAD0 D1,a7       br D1=0,81a7         
0352: 81a9: c8 20  REDI 20          reset DI 0x20        
0354: 81aa: 01 8d  SAI 018d         jump 818d            
0356: 81ab: de 79  MLIP M7,L9       L9 := [M7++]         
0358: 81ac: ba 99  SAB A9,B9        A9 <-> B9            
035a: 81ad: e7 69  OREB A6,B9       B9 := A6 xor B9      
035c: 81ae: 62 b6  SAD0 D1,b6       br D1=0,81b6         
035e: 81af: d7 96  OREA A9,B6       A9 := A9 xor B6      
0360: 81b0: 62 b6  SAD0 D1,b6       br D1=0,81b6         
0362: 81b1: 01 98  SAI 0198         jump 8198            
0364: 81b2: 62 ab  SAD0 D1,ab       br D1=0,81ab         
0366: 81b3: 6c be  SAD0 D6,be       br D6=0,81be         
0368: 81b4: c8 40  REDI 40          reset DI 0x40        
036a: 81b5: 01 8c  SAI 018c         jump 818c            
036c: 81b6: 78 03  CRTA A08,C03     A08 := 0x03          
036e: 81b7: f8 87  TBAP A8,B7       A8.P := B7.P         
0370: 81b8: 58 3f  CRTB B08,C3f     B08 := 0x3f          
0372: 81b9: 95 8f  ICB B8           B8++                 
0374: 81ba: c3 90  SLDA A9,C0       A9 >> DI0            
0376: 81bb: d3 91  SLDB B9          B9 >> DI0            
0378: 81bc: 60 b9  SAD0 D0,b9       br D0=0,81b9         
037a: 81bd: c8 10  REDI 10          reset DI 0x10        
037c: 81be: bc 36  SLL L3,L6        L3 <-> L6            
037e: 81bf: bc 02  SLL L0,L2        L0 <-> L2            
0380: 81c0: 5a 00  CRTB B10,C00     B10 := 0x00          
0382: 81c1: de 07  MLIP M0,L7       L7 := [M0++]         
0384: 81c2: 80 f0                                        
0386: 81c3: 7e 08  CRTA A14,C08     A14 := 0x08          
  ; A14 := 8 (harddisk?)
0388: 81c4: de 79  MLIP M7,L9       L9 := [M7++]         
038a: 81c5: b7 89  ANDB A8,B9       B9 := A8 and B9      
038c: 81c6: 63 c8  SAD1 D1,c8       br D1=1,81c8         
038e: 81c7: 87 9a  ORB A9,B10       B10 := A9 or B10     
0390: 81c8: d3 80  SLDB B8          B8 >> DI0            
0392: 81c9: c4 a1  SLSA A10,C1      A10 << DI0           
0394: 81ca: ae ef  DCA A14          A14--                
0396: 81cb: 62 c4  SAD0 D1,c4       br D1=0,81c4         
0398: 81cc: 8b af  ROTA A10         A10.M <-> A10.P      
039a: 81cd: ba aa  SAB A10,B10      A10 <-> B10          
039c: 81ce: a8 ee  AMI A14,A14      [A14] := A14         
039e: 81cf: 59 40  CRTB B09,C40     B09 := 0x40          
03a0: 81d0: 57 10  CRTB B07,C10     B07 := 0x10          
03a2: 81d1: b1 e4  ESE A14          sel.B <- [A14]       
  ; 
03a4: 81d2: d3 a0  SLDB B10         B10 >> DI0           
03a6: 81d3: c3 a1  SLDA A10,C1      A10 >> DI0           
03a8: 81d4: c4 91  SLSA A9,C1       A9 << DI0            
03aa: 81d5: fc 90  CAE L9           cmd.W <- L9          
03ac: 81d6: be 7f  DCB B7           B7--                 
03ae: 81d7: 62 d2  SAD0 D1,d2       br D1=0,81d2         
03b0: 81d8: bc 02  SLL L0,L2        L0 <-> L2            
03b2: 81d9: de 08  MLIP M0,L8       L8 := [M0++]         
03b4: 81da: 00 00  SAI 0000         jump 8000            
03b6: 81db: de 02  MLIP M0,L2       L2 := [M0++]         
03b8: 81dc: de 81  MLIP M8,L1       L1 := [M8++]         
03ba: 81dd: 01 c0  SAI 01c0         jump 81c0            
03bc: 81de: 7e 0e  CRTA A14,C0e     A14 := 0x0e          
03be: 81df: 9c ef  MBIP A14,B15     B15 := [A14++]       
03c0: 81e0: 99 ee  MBI A14,B14      B14 := [A14]         
03c2: 81e1: d1 f4  MLI A15,L4       L4 := [A15]          
03c4: 81e2: 37 0c  MAD A07,C0c      A7 := [0c]           
03c6: 81e3: 8e 7f  VRA A7           A7==0                
03c8: 81e4: 63 f0  SAD1 D1,f0       br D1=1,81f0         
03ca: 81e5: 39 0d  MAD A09,C0d      A9 := [0d]           
03cc: 81e6: 59 00  CRTB B09,C00     B09 := 0x00          
03ce: 81e7: 3a 0d  MAD A10,C0d      A10 := [0d]          
03d0: 81e8: 5a 01  CRTB B10,C01     B10 := 0x01          
03d2: 81e9: 57 40  CRTB B07,C40     B07 := 0x40          
03d4: 81ea: de a8  MLIP M10,L8      L8 := [M10++]        
03d6: 81eb: ee 98  LMIP M9,L8       [M9++] := L8         
03d8: 81ec: be 7f  DCB B7           B7--                 
03da: 81ed: 62 ea  SAD0 D1,ea       br D1=0,81ea         
03dc: 81ee: ae 7f  DCA A7           A7--                 
03de: 81ef: 62 e9  SAD0 D1,e9       br D1=0,81e9         
03e0: 81f0: 8e 6f  VRA A6           A6==0                
03e2: 81f1: 63 fa  SAD1 D1,fa       br D1=1,81fa         
03e4: 81f2: d8 65  TAB A6,B5        B5 := A6             
03e6: 81f3: de 02  MLIP M0,L2       L2 := [M0++]         
03e8: 81f4: f6 81  ORA A8,B1        A8 := A8 or B1       
03ea: 81f5: 00 bc  SAI 00bc         jump 80bc            
03ec: 81f6: 69 fa  SAD1 D4,fa       br D4=1,81fa         
03ee: 81f7: 59 05  CRTB B09,C05     B09 := 0x05          
03f0: 81f8: f9 89  TBAM A8,B9       A8.M := B9.M         
03f2: 81f9: 00 ad  SAI 00ad         jump 80ad            
03f4: 81fa: ba 44  SAB A4,B4        A4 <-> B4            
03f6: 81fb: bc 14  SLL L1,L4        L1 <-> L4            
03f8: 81fc: bd 10  COMx C1            C1                 
03fa: 81fd: c9 00  SEDI 00          set DI 0x00          
03fc: 81fe: 4f de  SADE f de                             
03fe: 81ff: fe f5                                        
0400: 8200: 8d 78  EMI M7           [M7] <- data.B       
0402: 8201: 91 7e  MAI M7,A14       A14 := [M7]          
0404: 8202: bc 06  SLL L0,L6        L0 <-> L6            
0406: 8203: bd 00  COMx C0            C0                 
0408: 8204: 7d 00  CRTA A13,C00     A13 := 0x00          
  ; 8100 = level 1 write ??
040a: 8205: 93 6f  TBDI B6          DI := B6             
040c: 8206: d1 f6  MLI A15,L6       L6 := [A15]          
040e: 8207: 94 60  MEIP M6          data.B <- [M6++]     
0410: 8208: e1 f6  LMI A15,L6       [A15] := L6          
0412: 8209: bd 00  COMx C0            C0                 
0414: 820a: b9 f0  ENUA A15         name -> A15          
0416: 820b: bd a0  COMx C10           C10                
0418: 820c: d1 f6  MLI A15,L6       L6 := [A15]          
041a: 820d: ad 6f  EDC L6           L6.MMM--, ECOF if zero 
041c: 820e: ee f6  LMIP A15,L6      [A15++] := L6        
041e: 820f: b3 6f  SDIB B6          B6 <-> DI            
0420: 8210: 6c 05  SAD0 D6,05       br D6=0,8205         
0422: 8211: 93 6f  TBDI B6          DI := B6             
0424: 8212: d1 f6  MLI A15,L6       L6 := [A15]          
0426: 8213: a2 68  EMIP M6          [M6++] <- data.B     
0428: 8214: 7d 08  CRTA A13,C08     A13 := 0x08          
  ; 8108 = level 1 cmd ??
042a: 8215: a9 c8  EDB B12          data.B -> B12        
042c: 8216: 93 cf  TBDI B12         DI := B12            
042e: 8217: 69 15  SAD1 D4,15       br D4=1,8215         
0430: 8218: 93 ff  TBDI B15         DI := B15            
0432: 8219: 70 00  CRTA A00,C00     A00 := 0x00          
0434: 821a: 61 25  SAD1 D0,25       br D0=1,8225         
0436: 821b: 70 35  CRTA A00,C35     A00 := 0x35          
0438: 821c: 65 1e  SAD1 D2,1e       br D2=1,821e         
043a: 821d: 70 37  CRTA A00,C37     A00 := 0x37          
  ; from ...
043c: 821e: 7e 09  CRTA A14,C09     A14 := 0x09          
043e: 821f: de eb  MLIP A14,L11     L11 := [A14++]       
0440: 8220: de ea  MLIP A14,L10     L10 := [A14++]       
0442: 8221: de e8  MLIP A14,L8      L8 := [A14++]        
  ; L11 := [09], L10 := [0a], L8 := [0b]
0444: 8222: 3e 10  MAD A14,C10      A14 := [10]          
0446: 8223: 83 ef  TADI A14         DI := A14            
0448: 8224: 3e 11  MAD A14,C11      A14 := [11]          
044a: 8225: bd 00  COMx C0            C0                 
  ; enter/exit floppy intr L3 ??
044c: 8226: 2e 11  AMD A14,C11      [11] := A14          
044e: 8227: c5 ef  TDIA A14         A14 := DI            
0450: 8228: 2e 10  AMD A14,C10      [10] := A14          
0452: 8229: 7e 09  CRTA A14,C09     A14 := 0x09          
0454: 822a: ee eb  LMIP A14,L11     [A14++] := L11       
0456: 822b: ee ea  LMIP A14,L10     [A14++] := L10       
0458: 822c: ee e8  LMIP A14,L8      [A14++] := L8        
  ; [09] := L11, [0a] := L10, [0b] := L11
045a: 822d: aa b0  ENTL L11         name -> L11.A, type->L11.B 
045c: 822e: 5a 00  CRTB B10,C00     B10 := 0x00          
045e: 822f: e8 ba  TABM A11,B10     B10.M := A11.M       
0460: 8230: 9e af  VRB B10          B10==0               
0462: 8231: 63 3f  SAD1 D1,3f       br D1=1,823f         
0464: 8232: 83 bf  TADI A11         DI := A11            
0466: 8233: 60 39  SAD0 D0,39       br D0=0,8239         
0468: 8234: de 18  MLIP M1,L8       L8 := [M1++]         
046a: 8235: 46 04  SADE 6 04                             
046c: 8236: f8 86  TBAP A8,B6       A8.P := B6.P         
046e: 8237: 70 0e  CRTA A00,C0e     A00 := 0x0e          
0470: 8238: 02 25  SAI 0225         jump 8225            
0472: 8239: 58 40  CRTB B08,C40     B08 := 0x40          
0474: 823a: 8b bf  ROTA A11         A11.M <-> A11.P      
0476: 823b: d8 bb  TAB A11,B11      B11 := A11           
0478: 823c: 78 04  CRTA A08,C04     A08 := 0x04          
047a: 823d: f8 8b  TBAP A8,B11      A8.P := B11.P        
047c: 823e: 02 37  SAI 0237         jump 8237            
047e: 823f: a9 c8  EDB B12          data.B -> B12        
0480: 8240: bd 40  COMx C4            C4                 
0482: 8241: 5a 60  CRTB B10,C60     B10 := 0x60          
0484: 8242: c7 ba  ORE A11,B10      A11 xor B10          
0486: 8243: 58 41  CRTB B08,C41     B08 := 0x41          
0488: 8244: 62 3b  SAD0 D1,3b       br D1=0,823b         
048a: 8245: e9 ab  TBA A10,B11      A10 := B11           
048c: 8246: ab af  AZAM A10         A10.M := 0           
048e: 8247: 8e af  VRA A10          A10==0               
0490: 8248: 58 43  CRTB B08,C43     B08 := 0x43          
0492: 8249: 62 3c  SAD0 D1,3c       br D1=0,823c         
0494: 824a: 93 bf  TBDI B11         DI := B11            
0496: 824b: 67 51  SAD1 D3,51       br D3=1,8251         
0498: 824c: 65 a2  SAD1 D2,a2       br D2=1,82a2         
049a: 824d: 61 89  SAD1 D0,89       br D0=1,8289         
049c: 824e: 9b bf  ROTB B11         B11.M <-> B11.P      
049e: 824f: 58 42  CRTB B08,C42     B08 := 0x42          
04a0: 8250: 02 3c  SAI 023c         jump 823c            
04a2: 8251: 65 4e  SAD1 D2,4e       br D2=1,824e         
04a4: 8252: 63 4e  SAD1 D1,4e       br D1=1,824e         
04a6: 8253: 61 4e  SAD1 D0,4e       br D0=1,824e         
04a8: 8254: 38 2b  MAD A08,C2b      A8 := [2b]           
04aa: 8255: 93 cf  TBDI B12         DI := B12            
04ac: 8256: 65 74  SAD1 D2,74       br D2=1,8274         
04ae: 8257: 63 6b  SAD1 D1,6b       br D1=1,826b         
04b0: 8258: 61 7d  SAD1 D0,7d       br D0=1,827d         
04b2: 8259: 38 23  MAD A08,C23      A8 := [23]           
04b4: 825a: 85 8f  ICA A8           A8++                 
04b6: 825b: 28 23  AMD A08,C23      [23] := A8           
04b8: 825c: 38 2e  MAD A08,C2e      A8 := [2e]           
04ba: 825d: ae 8f  DCA A8           A8--                 
04bc: 825e: 28 2e  AMD A08,C2e      [2e] := A8           
04be: 825f: 78 04  CRTA A08,C04     A08 := 0x04          
04c0: 8260: 28 2b  AMD A08,C2b      [2b] := A8           
04c2: 8261: 62 1e  SAD0 D1,1e       br D1=0,821e         
04c4: 8262: de 1a  MLIP M1,L10      L10 := [M1++]        
  !value
04c6: 8263: 80 00                                        
04c8: 8264: 7e 16  CRTA A14,C16     A14 := 0x16          
04ca: 8265: e1 ea  LMI A14,L10      [A14] := L10         
  ; [16] := 0x8000
04cc: 8266: 7e 2c  CRTA A14,C2c     A14 := 0x2c          
04ce: 8267: b4 e2  ECO A14          cmd.B <- [A14]       
04d0: 8268: 7e 2d  CRTA A14,C2d     A14 := 0x2d          
04d2: 8269: b4 e2  ECO A14          cmd.B <- [A14]       
  ; double cmd [2c] [2d], for floppy?
04d4: 826a: 02 1e  SAI 021e         jump 821e            
04d6: 826b: ae 8f  DCA A8           A8--                 
04d8: 826c: 28 2b  AMD A08,C2b      [2b] := A8           
04da: 826d: 62 1e  SAD0 D1,1e       br D1=0,821e         
04dc: 826e: 70 4f  CRTA A00,C4f     A00 := 0x4f          
04de: 826f: b3 ff  SDIB B15         B15 <-> DI           
04e0: 8270: 64 72  SAD0 D2,72       br D2=0,8272         
04e2: 8271: 70 33  CRTA A00,C33     A00 := 0x33          
04e4: 8272: b3 ff  SDIB B15         B15 <-> DI           
04e6: 8273: 02 5f  SAI 025f         jump 825f            
04e8: 8274: 6d 77  SAD1 D6,77       br D6=1,8277         
04ea: 8275: ae 8f  DCA A8           A8--                 
04ec: 8276: 62 6c  SAD0 D1,6c       br D1=0,826c         
04ee: 8277: 70 37  CRTA A00,C37     A00 := 0x37          
04f0: 8278: 78 0a  CRTA A08,C0a     A08 := 0x0a          
04f2: 8279: 28 2b  AMD A08,C2b      [2b] := A8           
04f4: 827a: 78 80  CRTA A08,C80     A08 := 0x80          
04f6: 827b: 28 2d  AMD A08,C2d      [2d] := A8           
04f8: 827c: 02 68  SAI 0268         jump 8268            
04fa: 827d: 93 ff  TBDI B15         DI := B15            
04fc: 827e: 6e 85  SAD0 D7,85       br D7=0,8285         
04fe: 827f: 78 05  CRTA A08,C05     A08 := 0x05          
0500: 8280: 28 23  AMD A08,C23      [23] := A8           
0502: 8281: 78 7f  CRTA A08,C7f     A08 := 0x7f          
0504: 8282: b7 8f  ANDB A8,B15      B15 := A8 and B15    
0506: 8283: 70 4f  CRTA A00,C4f     A00 := 0x4f          
0508: 8284: 02 1e  SAI 021e         jump 821e            
050a: 8285: ae 8f  DCA A8           A8--                 
050c: 8286: 62 6c  SAD0 D1,6c       br D1=0,826c         
050e: 8287: 5c f0  CRTB B12,Cf0     B12 := 0xf0          
0510: 8288: 02 a4  SAI 02a4         jump 82a4            
0512: 8289: 63 15  SAD1 D1,15       br D1=1,8215         
0514: 828a: 93 ff  TBDI B15         DI := B15            
0516: 828b: 61 99  SAD1 D0,99       br D0=1,8299         
0518: 828c: 70 13  CRTA A00,C13     A00 := 0x13          
051a: 828d: 93 cf  TBDI B12         DI := B12            
051c: 828e: 6b 1e  SAD1 D5,1e       br D5=1,821e         
051e: 828f: de 18  MLIP M1,L8       L8 := [M1++]         
0520: 8290: 00 01  SAI 0001         jump 8001            
0522: 8291: 7e 02  CRTA A14,C02     A14 := 0x02          
0524: 8292: e1 e8  LMI A14,L8       [A14] := L8          
0526: 8293: 63 9d  SAD1 D1,9d       br D1=1,829d         
0528: 8294: 65 9d  SAD1 D2,9d       br D2=1,829d         
052a: 8295: 58 45  CRTB B08,C45     B08 := 0x45          
052c: 8296: 69 9f  SAD1 D4,9f       br D4=1,829f         
052e: 8297: 70 1b  CRTA A00,C1b     A00 := 0x1b          
0530: 8298: 6f 1e  SAD1 D7,1e       br D7=1,821e         
0532: 8299: 70 11  CRTA A00,C11     A00 := 0x11          
0534: 829a: 8e 2f  VRA A2           A2==0                
0536: 829b: 63 77  SAD1 D1,77       br D1=1,8277         
0538: 829c: 02 66  SAI 0266         jump 8266            
053a: 829d: 58 44  CRTB B08,C44     B08 := 0x44          
053c: 829e: 9b cf  ROTB B12         B12.M <-> B12.P      
053e: 829f: 78 04  CRTA A08,C04     A08 := 0x04          
0540: 82a0: f8 8c  TBAP A8,B12      A8.P := B12.P        
0542: 82a1: 02 37  SAI 0237         jump 8237            
0544: 82a2: 63 4e  SAD1 D1,4e       br D1=1,824e         
0546: 82a3: 61 4e  SAD1 D0,4e       br D0=1,824e         
0548: 82a4: 53 00  CRTB B03,C00     B03 := 0x00          
054a: 82a5: 7e 00  CRTA A14,C00     A14 := 0x00          
054c: 82a6: a8 ee  AMI A14,A14      [A14] := A14         
054e: 82a7: b4 e2  ECO A14          cmd.B <- [A14]       
0550: 82a8: de 18  MLIP M1,L8       L8 := [M1++]         
0552: 82a9: 47 04  SADE 7 04                             
0554: 82aa: f8 8c  TBAP A8,B12      A8.P := B12.P        
0556: 82ab: 5a 70  CRTB B10,C70     B10 := 0x70          
0558: 82ac: 97 8a  AND A8,B10       A8 and B10           
055a: 82ad: 63 1e  SAD1 D1,1e       br D1=1,821e         
055c: 82ae: 3a 0b  MAD A10,C0b      A10 := [0b]          
055e: 82af: ae af  DCA A10          A10--                
0560: 82b0: 2a 0b  AMD A10,C0b      [0b] := A10          
0562: 82b1: 70 2c  CRTA A00,C2c     A00 := 0x2c          
0564: 82b2: 63 25  SAD1 D1,25       br D1=1,8225         
0566: 82b3: de 10  MLIP M1,L0       L0 := [M1++]         
0568: 82b4: 82 c5  AMIM A12,A5      [A12--] := A5        
056a: 82b5: 02 1e  SAI 021e         jump 821e            
056c: 82b6: de 01  MLIP M0,L1       L1 := [M0++]         
056e: 82b7: 82 26  AMIM M2,A6       [M2--] := A6         
0570: 82b8: de 0a  MLIP M0,L10      L10 := [M0++]        
0572: 82b9: 10 00  SAI 1000         jump 9000            
0574: 82ba: 7e 02  CRTA A14,C02     A14 := 0x02          
0576: 82bb: ee eb  LMIP A14,L11     [A14++] := L11       
0578: 82bc: e1 ea  LMI A14,L10      [A14] := L10         
057a: 82bd: 78 14  CRTA A08,C14     A08 := 0x14          
057c: 82be: 28 0a  AMD A08,C0a      [0a] := A8           
057e: 82bf: 77 00  CRTA A07,C00     A07 := 0x00          
0580: 82c0: 79 e0  CRTA A09,Ce0     A09 := 0xe0          
0582: 82c1: 27 0f  AMD A07,C0f      [0f] := A7           
0584: 82c2: 29 01  AMD A09,C01      [01] := A9           
0586: 82c3: 77 03  CRTA A07,C03     A07 := 0x03          
0588: 82c4: 27 0b  AMD A07,C0b      [0b] := A7           
058a: 82c5: 77 00  CRTA A07,C00     A07 := 0x00          
058c: 82c6: 27 0c  AMD A07,C0c      [0c] := A7           
058e: 82c7: 5f 84  CRTB B15,C84     B15 := 0x84          
0590: 82c8: 77 ff  CRTA A07,Cff     A07 := 0xff          
0592: 82c9: 27 2a  AMD A07,C2a      [2a] := A7           
0594: 82ca: 77 00  CRTA A07,C00     A07 := 0x00          
0596: 82cb: 27 02  AMD A07,C02      [02] := A7           
0598: 82cc: 77 25  CRTA A07,C25     A07 := 0x25          
059a: 82cd: 27 03  AMD A07,C03      [03] := A7           
059c: 82ce: 79 16  CRTA A09,C16     A09 := 0x16          
059e: 82cf: de 04  MLIP M0,L4       L4 := [M0++]         
05a0: 82d0: 00 80  SAI 0080         jump 8080            
05a2: 82d1: 29 2e  AMD A09,C2e      [2e] := A9           
05a4: 82d2: 7e 10  CRTA A14,C10     A14 := 0x10          
05a6: 82d3: 55 fe  CRTB B05,Cfe     B05 := 0xfe          
05a8: 82d4: 35 02  MAD A05,C02      A5 := [02]           
05aa: 82d5: ee e5  LMIP A14,L5      [A14++] := L5        
05ac: 82d6: 57 00  CRTB B07,C00     B07 := 0x00          
05ae: 82d7: 37 03  MAD A07,C03      A7 := [03]           
05b0: 82d8: ee e7  LMIP A14,L7      [A14++] := L7        
05b2: 82d9: 77 c7  CRTA A07,Cc7     A07 := 0xc7          
05b4: 82da: ee e7  LMIP A14,L7      [A14++] := L7        
05b6: 82db: de 07  MLIP M0,L7       L7 := [M0++]         
  !value
05b8: 82dc: fb 08                                        
05ba: 82dd: ee e7  LMIP A14,L7      [A14++] := L7        
05bc: 82de: de e8  MLIP A14,L8      L8 := [A14++]        
05be: 82df: c9 01  SEDI 01          set DI 0x01          
05c0: 82e0: b6 58  SOT A5,B8        A5-B8+DI0            
05c2: 82e1: 60 e7  SAD0 D0,e7       br D0=0,82e7         
05c4: 82e2: 85 5f  ICA A5           A5++                 
05c6: 82e3: d8 88  TAB A8,B8        B8 := A8             
05c8: 82e4: b6 58  SOT A5,B8        A5-B8+DI0            
05ca: 82e5: 60 e7  SAD0 D0,e7       br D0=0,82e7         
05cc: 82e6: 85 5f  ICA A5           A5++                 
05ce: 82e7: d1 e7  MLI A14,L7       L7 := [A14]          
05d0: 82e8: c9 01  SEDI 01          set DI 0x01          
05d2: 82e9: d6 57  SOTB A5,B7       B7 := A5-B7+DI0      
05d4: 82ea: 62 ed  SAD0 D1,ed       br D1=0,82ed         
05d6: 82eb: 72 00  CRTA A02,C00     A02 := 0x00          
05d8: 82ec: 02 f7  SAI 02f7         jump 82f7            
05da: 82ed: de 08  MLIP M0,L8       L8 := [M0++]         
05dc: 82ee: 48 58  SADE 8 58                             
05de: 82ef: e9 77  TBA A7,B7        A7 := B7             
05e0: 82f0: 61 f6  SAD1 D0,f6       br D0=1,82f6         
05e2: 82f1: 58 ff  CRTB B08,Cff     B08 := 0xff          
05e4: 82f2: d7 78  OREA A7,B8       A7 := A7 xor B8      
05e6: 82f3: 85 7f  ICA A7           A7++                 
05e8: 82f4: de 08  MLIP M0,L8       L8 := [M0++]         
05ea: 82f5: 40 50  SADE 0 50                             
05ec: 82f6: 72 01  CRTA A02,C01     A02 := 0x01          
05ee: 82f7: d8 57  TAB A5,B7        B7 := A5             
05f0: 82f8: 53 c4  CRTB B03,Cc4     B03 := 0xc4          
05f2: 82f9: 7c 0c  CRTA A12,C0c     A12 := 0x0c          
05f4: 82fa: de 05  MLIP M0,L5       L5 := [M0++]         
05f6: 82fb: 00 20  SAI 0020         jump 8020            
05f8: 82fc: 7e 15  CRTA A14,C15     A14 := 0x15          
05fa: 82fd: ee e7  LMIP A14,L7      [A14++] := L7        
05fc: 82fe: e1 e8  LMI A14,L8       [A14] := L8          
05fe: 82ff: 03 07  SAI 0307         jump 8307            
0600: 8300: de 0b  MLIP M0,L11      L11 := [M0++]        
0602: 8301: 00 01  SAI 0001         jump 8001            
0604: 8302: de 02  MLIP M0,L2       L2 := [M0++]         
0606: 8303: b6 82  SOT A8,B2        A8-B2+DI0            
0608: 8304: de 08  MLIP M0,L8       L8 := [M0++]         
060a: 8305: 0f ff  SAI 0fff         jump 8fff            
060c: 8306: 01 c0  SAI 01c0         jump 81c0            
060e: 8307: 7e 01  CRTA A14,C01     A14 := 0x01          
0610: 8308: b1 e4  ESE A14          sel.B <- [A14]       
  ; bus name at [01]
0612: 8309: 78 04  CRTA A08,C04     A08 := 0x04          
0614: 830a: 7e 00  CRTA A14,C00     A14 := 0x00          
0616: 830b: ae ef  DCA A14          A14--                
0618: 830c: 62 0b  SAD0 D1,0b       br D1=0,830b         
061a: 830d: 58 48  CRTB B08,C48     B08 := 0x48          
061c: 830e: bd 30  COMx C3            C3                 
061e: 830f: bd 00  COMx C0            C0                 
0620: 8310: 00 ad  SAI 00ad         jump 80ad            
0622: 8311: 78 14  CRTA A08,C14     A08 := 0x14          
0624: 8312: 03 0a  SAI 030a         jump 830a            
0626: 8313: 7e 02  CRTA A14,C02     A14 := 0x02          
0628: 8314: d1 eb  MLI A14,L11      L11 := [A14]         
062a: 8315: e5 bf  DCL L11          L11--                
062c: 8316: e1 eb  LMI A14,L11      [A14] := L11         
062e: 8317: de 08  MLIP M0,L8       L8 := [M0++]         
0630: 8318: 49 04  SADE 9 04                             
0632: 8319: 63 2c  SAD1 D1,2c       br D1=1,832c         
0634: 831a: 02 bd  SAI 02bd         jump 82bd            
0636: 831b: 7e 03  CRTA A14,C03     A14 := 0x03          
0638: 831c: d1 eb  MLI A14,L11      L11 := [A14]         
063a: 831d: e5 bf  DCL L11          L11--                
063c: 831e: e1 eb  LMI A14,L11      [A14] := L11         
063e: 831f: 62 1a  SAD0 D1,1a       br D1=0,831a         
0640: 8320: 38 0a  MAD A08,C0a      A8 := [0a]           
0642: 8321: 37 0f  MAD A07,C0f      A7 := [0f]           
0644: 8322: 8e 7f  VRA A7           A7==0                
0646: 8323: 62 2b  SAD0 D1,2b       br D1=0,832b         
0648: 8324: 77 20  CRTA A07,C20     A07 := 0x20          
064a: 8325: 79 60  CRTA A09,C60     A09 := 0x60          
064c: 8326: de 0b  MLIP M0,L11      L11 := [M0++]        
064e: 8327: 00 01  SAI 0001         jump 8001            
0650: 8328: 7e 03  CRTA A14,C03     A14 := 0x03          
0652: 8329: e1 eb  LMI A14,L11      [A14] := L11         
0654: 832a: 02 c1  SAI 02c1         jump 82c1            
0656: 832b: 58 49  CRTB B08,C49     B08 := 0x49          
0658: 832c: de 02  MLIP M0,L2       L2 := [M0++]         
065a: 832d: 2f 83  AMD A15,C83      [83] := A15          
065c: 832e: 01 c0  SAI 01c0         jump 81c0            
065e: 832f: 5f 01  CRTB B15,C01     B15 := 0x01          
0660: 8330: de 08  MLIP M0,L8       L8 := [M0++]         
0662: 8331: 00 00  SAI 0000         jump 8000            
0664: 8332: 02 f6  SAI 02f6         jump 82f6            
0666: 8333: 78 44  CRTA A08,C44     A08 := 0x44          
0668: 8334: 03 38  SAI 0338         jump 8338            
066a: 8335: 78 24  CRTA A08,C24     A08 := 0x24          
066c: 8336: 03 38  SAI 0338         jump 8338            
066e: 8337: 78 34  CRTA A08,C34     A08 := 0x34          
0670: 8338: 7a 05  CRTA A10,C05     A10 := 0x05          
0672: 8339: de 0b  MLIP M0,L11      L11 := [M0++]        
0674: 833a: fa ff  TABC A15,B15      con <- A15, B15     
0676: 833b: e5 bf  DCL L11          L11--                
0678: 833c: 62 3a  SAD0 D1,3a       br D1=0,833a         
067a: 833d: ae af  DCA A10          A10--                
067c: 833e: 62 39  SAD0 D1,39       br D1=0,8339         
067e: 833f: 03 0d  SAI 030d         jump 830d            
0680: 8340: 78 02  CRTA A08,C02     A08 := 0x02          
0682: 8341: 7e 44  CRTA A14,C44     A14 := 0x44          
0684: 8342: 7f 28  CRTA A15,C28     A15 := 0x28          
0686: 8343: dd e7  MLIM A14,L7      L7 := [A14--]        
0688: 8344: 77 30  CRTA A07,C30     A07 := 0x30          
068a: 8345: c7 77  ORE A7,B7        A7 xor B7            
068c: 8346: 77 ff  CRTA A07,Cff     A07 := 0xff          
068e: 8347: 62 4b  SAD0 D1,4b       br D1=0,834b         
0690: 8348: d1 e7  MLI A14,L7       L7 := [A14]          
0692: 8349: 52 a6  CRTB B02,Ca6     B02 := 0xa6          
0694: 834a: ba 02  SAB A0,B2        A0 <-> B2            
0696: 834b: 88 f7  AMIP A15,A7      [A15++] := A7        
0698: 834c: 7e 46  CRTA A14,C46     A14 := 0x46          
069a: 834d: ae 8f  DCA A8           A8--                 
069c: 834e: 62 43  SAD0 D1,43       br D1=0,8343         
069e: 834f: 58 80  CRTB B08,C80     B08 := 0x80          
06a0: 8350: d1 f6  MLI A15,L6       L6 := [A15]          
06a2: 8351: 93 ff  TBDI B15         DI := B15            
06a4: 8352: 5a 20  CRTB B10,C20     B10 := 0x20          
06a6: 8353: de 0b  MLIP M0,L11      L11 := [M0++]        
06a8: 8354: fa ff  TABC A15,B15      con <- A15, B15     
06aa: 8355: c7 5a  ORE A5,B10       A5 xor B10           
06ac: 8356: 62 5b  SAD0 D1,5b       br D1=0,835b         
06ae: 8357: e5 bf  DCL L11          L11--                
06b0: 8358: 62 54  SAD0 D1,54       br D1=0,8354         
06b2: 8359: 78 64  CRTA A08,C64     A08 := 0x64          
06b4: 835a: 03 0d  SAI 030d         jump 830d            
06b6: 835b: 7a 03  CRTA A10,C03     A10 := 0x03          
06b8: 835c: de 0b  MLIP M0,L11      L11 := [M0++]        
06ba: 835d: fa ff  TABC A15,B15      con <- A15, B15     
06bc: 835e: 8e 3f  VRA A3           A3==0                
06be: 835f: 62 66  SAD0 D1,66       br D1=0,8366         
06c0: 8360: e5 bf  DCL L11          L11--                
06c2: 8361: 62 5d  SAD0 D1,5d       br D1=0,835d         
06c4: 8362: ae af  DCA A10          A10--                
06c6: 8363: 62 5c  SAD0 D1,5c       br D1=0,835c         
06c8: 8364: 78 74  CRTA A08,C74     A08 := 0x74          
06ca: 8365: 03 0d  SAI 030d         jump 830d            
06cc: 8366: 8e 3f  VRA A3           A3==0                
06ce: 8367: 62 66  SAD0 D1,66       br D1=0,8366         
06d0: 8368: 67 9b  SAD1 D3,9b       br D3=1,839b         
06d2: 8369: de 04  MLIP M0,L4       L4 := [M0++]         
06d4: 836a: 00 80  SAI 0080         jump 8080            
06d6: 836b: 69 93  SAD1 D4,93       br D4=1,8393         
06d8: 836c: 57 06  CRTB B07,C06     B07 := 0x06          
06da: 836d: 37 23  MAD A07,C23      A7 := [23]           
06dc: 836e: c7 77  ORE A7,B7        A7 xor B7            
06de: 836f: 63 40  SAD1 D1,40       br D1=1,8340         
06e0: 8370: 6d 9b  SAD1 D6,9b       br D6=1,839b         
06e2: 8371: 57 4d  CRTB B07,C4d     B07 := 0x4d          
06e4: 8372: 37 d5  MAD A07,Cd5      A7 := [d5]           
06e6: 8373: c7 77  ORE A7,B7        A7 xor B7            
06e8: 8374: 62 9b  SAD0 D1,9b       br D1=0,839b         
06ea: 8375: 57 48  CRTB B07,C48     B07 := 0x48          
06ec: 8376: 37 80  MAD A07,C80      A7 := [80]           
06ee: 8377: c7 77  ORE A7,B7        A7 xor B7            
06f0: 8378: 62 9b  SAD0 D1,9b       br D1=0,839b         
06f2: 8379: 57 44  CRTB B07,C44     B07 := 0x44          
06f4: 837a: 37 81  MAD A07,C81      A7 := [81]           
06f6: 837b: c7 77  ORE A7,B7        A7 xor B7            
06f8: 837c: 62 9b  SAD0 D1,9b       br D1=0,839b         
06fa: 837d: 57 52  CRTB B07,C52     B07 := 0x52          
06fc: 837e: 37 82  MAD A07,C82      A7 := [82]           
06fe: 837f: c7 77  ORE A7,B7        A7 xor B7            
0700: 8380: 62 9b  SAD0 D1,9b       br D1=0,839b         
0702: 8381: 57 31  CRTB B07,C31     B07 := 0x31          
0704: 8382: 37 83  MAD A07,C83      A7 := [83]           
0706: 8383: c7 77  ORE A7,B7        A7 xor B7            
0708: 8384: 62 9b  SAD0 D1,9b       br D1=0,839b         
070a: 8385: 7e 4e  CRTA A14,C4e     A14 := 0x4e          
070c: 8386: d1 e7  MLI A14,L7       L7 := [A14]          
070e: 8387: 52 a6  CRTB B02,Ca6     B02 := 0xa6          
0710: 8388: ba 02  SAB A0,B2        A0 <-> B2            
0712: 8389: 27 02  AMD A07,C02      [02] := A7           
0714: 838a: 7e 9f  CRTA A14,C9f     A14 := 0x9f          
0716: 838b: 9c e7  MBIP A14,B7      B7 := [A14++]        
0718: 838c: 91 e7  MAI A14,A7       A7 := [A14]          
071a: 838d: 52 a6  CRTB B02,Ca6     B02 := 0xa6          
071c: 838e: ba 02  SAB A0,B2        A0 <-> B2            
071e: 838f: 27 03  AMD A07,C03      [03] := A7           
0720: 8390: 78 40  CRTA A08,C40     A08 := 0x40          
0722: 8391: 87 8f  ORB A8,B15       B15 := A8 or B15     
0724: 8392: 03 9b  SAI 039b         jump 839b            
0726: 8393: 7e 40  CRTA A14,C40     A14 := 0x40          
0728: 8394: de e7  MLIP A14,L7      L7 := [A14++]        
072a: 8395: ee 67  LMIP M6,L7       [M6++] := L7         
072c: 8396: de e7  MLIP A14,L7      L7 := [A14++]        
072e: 8397: ee 67  LMIP M6,L7       [M6++] := L7         
0730: 8398: c7 e8  ORE A14,B8       A14 xor B8           
0732: 8399: 62 94  SAD0 D1,94       br D1=0,8394         
0734: 839a: e1 f6  LMI A15,L6       [A15] := L6          
0736: 839b: 37 2e  MAD A07,C2e      A7 := [2e]           
0738: 839c: 8e 7f  VRA A7           A7==0                
073a: 839d: 62 51  SAD0 D1,51       br D1=0,8351         
073c: 839e: de 0b  MLIP M0,L11      L11 := [M0++]        
073e: 839f: fa ff  TABC A15,B15      con <- A15, B15     
0740: 83a0: 9e 3f  VRB B3           B3==0                
0742: 83a1: 63 ba  SAD1 D1,ba       br D1=1,83ba         
0744: 83a2: e5 bf  DCL L11          L11--                
0746: 83a3: 62 9f  SAD0 D1,9f       br D1=0,839f         
0748: 83a4: 78 54  CRTA A08,C54     A08 := 0x54          
074a: 83a5: 03 0d  SAI 030d         jump 830d            
074c: 83a6: db 7f  AZBP B7          B7.P := 0            
074e: 83a7: bb 7f  AZAP A7          A7.P := 0            
0750: 83a8: 5a 0a  CRTB B10,C0a     B10 := 0x0a          
0752: 83a9: d3 70  SLDB B7          B7 >> DI0            
0754: 83aa: 60 ad  SAD0 D0,ad       br D0=0,83ad         
0756: 83ab: c8 01  REDI 01          reset DI 0x01        
0758: 83ac: 96 7a  ADDA A7,B10      A7 := A7+B10+DI0     
075a: 83ad: d4 a0  SLSA B10         B10 << DI0           
075c: 83ae: 60 a9  SAD0 D0,a9       br D0=0,83a9         
075e: 83af: ba 02  SAB A0,B2        A0 <-> B2            
0760: 83b0: 78 24  CRTA A08,C24     A08 := 0x24          
0762: 83b1: 28 0a  AMD A08,C0a      [0a] := A8           
0764: 83b2: 6c 20  SAD0 D6,20       br D6=0,8320         
0766: 83b3: 5f 08  CRTB B15,C08     B15 := 0x08          
0768: 83b4: 5d 80  CRTB B13,C80     B13 := 0x80          
076a: 83b5: de 04  MLIP M0,L4       L4 := [M0++]         
076c: 83b6: 01 00  SAI 0100         jump 8100            
076e: 83b7: 79 01  CRTA A09,C01     A09 := 0x01          
0770: 83b8: 02 d1  SAI 02d1         jump 82d1            
0772: 83b9: 01 d9  SAI 01d9         jump 81d9            
0774: 83ba: 65 b0  SAD1 D2,b0       br D2=1,83b0         
0776: 83bb: c8 80  REDI 80          reset DI 0x80        
0778: 83bc: e9 fd  TBA A15,B13      A15 := B13           
077a: 83bd: de f6  MLIP A15,L6      L6 := [A15++]        
077c: 83be: 7e 44  CRTA A14,C44     A14 := 0x44          
077e: 83bf: c7 e6  ORE A14,B6       A14 xor B6           
0780: 83c0: 63 ce  SAD1 D1,ce       br D1=1,83ce         
0782: 83c1: c9 80  SEDI 80          set DI 0x80          
0784: 83c2: 7e 20  CRTA A14,C20     A14 := 0x20          
0786: 83c3: c7 e6  ORE A14,B6       A14 xor B6           
0788: 83c4: 63 e7  SAD1 D1,e7       br D1=1,83e7         
078a: 83c5: 7e 46  CRTA A14,C46     A14 := 0x46          
078c: 83c6: c7 e6  ORE A14,B6       A14 xor B6           
078e: 83c7: 63 b9  SAD1 D1,b9       br D1=1,83b9         
0790: 83c8: 7e 4b  CRTA A14,C4b     A14 := 0x4b          
0792: 83c9: c7 e6  ORE A14,B6       A14 xor B6           
0794: 83ca: 63 d4  SAD1 D1,d4       br D1=1,83d4         
0796: 83cb: 78 04  CRTA A08,C04     A08 := 0x04          
0798: 83cc: 58 4a  CRTB B08,C4a     B08 := 0x4a          
079a: 83cd: 03 2c  SAI 032c         jump 832c            
079c: 83ce: d1 f7  MLI A15,L7       L7 := [A15]          
079e: 83cf: 9e 7f  VRB B7           B7==0                
07a0: 83d0: 62 d4  SAD0 D1,d4       br D1=0,83d4         
07a2: 83d1: 57 01  CRTB B07,C01     B07 := 0x01          
07a4: 83d2: 26 0c  AMD A06,C0c      [0c] := A6           
07a6: 83d3: 27 0d  AMD A07,C0d      [0d] := A7           
07a8: 83d4: ee f7  LMIP A15,L7      [A15++] := L7        
07aa: 83d5: de f7  MLIP A15,L7      L7 := [A15++]        
07ac: 83d6: 52 a6  CRTB B02,Ca6     B02 := 0xa6          
07ae: 83d7: ba 02  SAB A0,B2        A0 <-> B2            
07b0: 83d8: 27 02  AMD A07,C02      [02] := A7           
07b2: 83d9: d1 f7  MLI A15,L7       L7 := [A15]          
07b4: 83da: 52 a6  CRTB B02,Ca6     B02 := 0xa6          
07b6: 83db: ba 02  SAB A0,B2        A0 <-> B2            
07b8: 83dc: 27 03  AMD A07,C03      [03] := A7           
07ba: 83dd: 6f b3  SAD1 D7,b3       br D7=1,83b3         
07bc: 83de: d8 7a  TAB A7,B10       B10 := A7            
07be: 83df: 7a 1b  CRTA A10,C1b     A10 := 0x1b          
07c0: 83e0: c9 07  SEDI 07          set DI 0x07          
07c2: 83e1: c6 aa  SOTA A10,B10     A10 := A10-B10+DI0   
07c4: 83e2: d8 6a  TAB A6,B10       B10 := A6            
07c6: 83e3: c9 07  SEDI 07          set DI 0x07          
07c8: 83e4: b6 aa  SOT A10,B10      A10-B10+DI0          
07ca: 83e5: 60 f4  SAD0 D0,f4       br D0=0,83f4         
07cc: 83e6: e9 fd  TBA A15,B13      A15 := B13           
07ce: 83e7: 7e b8  CRTA A14,Cb8     A14 := 0xb8          
07d0: 83e8: c9 07  SEDI 07          set DI 0x07          
07d2: 83e9: b6 ed  SOT A14,B13      A14-B13+DI0          
07d4: 83ea: 78 14  CRTA A08,C14     A08 := 0x14          
07d6: 83eb: 60 cc  SAD0 D0,cc       br D0=0,83cc         
07d8: 83ec: 7e 04  CRTA A14,C04     A14 := 0x04          
07da: 83ed: c8 07  REDI 07          reset DI 0x07        
07dc: 83ee: a6 ed  ADDB A14,B13     B13 := A14+B13+DI0   
07de: 83ef: 6f bb  SAD1 D7,bb       br D7=1,83bb         
07e0: 83f0: 85 ff  ICA A15          A15++                
07e2: 83f1: 5f 10  CRTB B15,C10     B15 := 0x10          
07e4: 83f2: e9 9a  TBA A9,B10       A9 := B10            
07e6: 83f3: 02 cf  SAI 02cf         jump 82cf            
07e8: 83f4: d8 aa  TAB A10,B10      B10 := A10           
07ea: 83f5: c9 07  SEDI 07          set DI 0x07          
07ec: 83f6: c6 6a  SOTA A6,B10      A6 := A6-B10+DI0     
07ee: 83f7: 57 30  CRTB B07,C30     B07 := 0x30          
07f0: 83f8: 77 31  CRTA A07,C31     A07 := 0x31          
07f2: 83f9: ed f7  LMIM A15,L7      [A15--] := L7        
07f4: 83fa: d1 f7  MLI A15,L7       L7 := [A15]          
07f6: 83fb: 85 7f  ICA A7           A7++                 
07f8: 83fc: 58 3a  CRTB B08,C3a     B08 := 0x3a          
07fa: 83fd: 00 f8  SAI 00f8         jump 80f8            
07fc: 83fe: 41 29  SADE 1 29                             
07fe: 83ff: 06 00  SAI 0600         jump 8600            
0800: 8400: 78 07  CRTA A08,C07     A08 := 0x07          
0802: 8401: 58 08  CRTB B08,C08     B08 := 0x08          
0804: 8402: 67 04  SAD1 D3,04       br D3=1,8404         
0806: 8403: 78 04  CRTA A08,C04     A08 := 0x04          
0808: 8404: 5d 10  CRTB B13,C10     B13 := 0x10          
080a: 8405: de 0a  MLIP M0,L10      L10 := [M0++]        
080c: 8406: 01 10  SAI 0110         jump 8110            
080e: 8407: de 09  MLIP M0,L9       L9 := [M0++]         
0810: 8408: 01 10  SAI 0110         jump 8110            
0812: 8409: de 02  MLIP M0,L2       L2 := [M0++]         
0814: 840a: 01 20  SAI 0120         jump 8120            
0816: 840b: d8 87  TAB A8,B7        B7 := A8             
0818: 840c: f9 27  TBAM A2,B7       A2.M := B7.M         
081a: 840d: f9 97  TBAM A9,B7       A9.M := B7.M         
081c: 840e: f9 a7  TBAM A10,B7      A10.M := B7.M        
081e: 840f: e2 e0  LPMIP A14,L0     [A14++] := ++L0      
0820: 8410: 04 d5  SAI 04d5         jump 84d5            
0822: 8411: 96 2d  ADDA A2,B13      A2 := A2+B13+DI0     
0824: 8412: 96 ad  ADDA A10,B13     A10 := A10+B13+DI0   
0826: 8413: be 8f  DCB B8           B8--                 
0828: 8414: 62 0b  SAD0 D1,0b       br D1=0,840b         
082a: 8415: ae ef  DCA A14          A14--                
082c: 8416: d1 ea  MLI A14,L10      L10 := [A14]         
082e: 8417: 6b 19  SAD1 D5,19       br D5=1,8419         
0830: 8418: d1 00  MLI M0,L0        L0 := [M0]           
0832: 8419: a0 fd  ICD1 D7,L13      L13++ if D7=1        
0834: 841a: de 08  MLIP M0,L8       L8 := [M0++]         
0836: 841b: 01 a0  SAI 01a0         jump 81a0            
0838: 841c: 7b 20  CRTA A11,C20     A11 := 0x20          
083a: 841d: 8c 87  BMIP M8,A7       [M8++] := A7         
083c: 841e: ae bf  DCA A11          A11--                
083e: 841f: 62 1d  SAD0 D1,1d       br D1=0,841d         
0840: 8420: de 08  MLIP M0,L8       L8 := [M0++]         
0842: 8421: 01 a0  SAI 01a0         jump 81a0            
0844: 8422: de 02  MLIP M0,L2       L2 := [M0++]         
0846: 8423: 01 b0  SAI 01b0         jump 81b0            
0848: 8424: 5f 0d  CRTB B15,C0d     B15 := 0x0d          
084a: 8425: 5e 07  CRTB B14,C07     B14 := 0x07          
084c: 8426: 67 29  SAD1 D3,29       br D3=1,8429         
084e: 8427: 5f 06  CRTB B15,C06     B15 := 0x06          
0850: 8428: 5e 04  CRTB B14,C04     B14 := 0x04          
0852: 8429: f9 2f  TBAM A2,B15      A2.M := B15.M        
0854: 842a: f9 8f  TBAM A8,B15      A8.M := B15.M        
0856: 842b: d3 f0  SLDB B15         B15 >> DI0           
0858: 842c: de 07  MLIP M0,L7       L7 := [M0++]         
085a: 842d: 01 10  SAI 0110         jump 8110            
085c: 842e: 9a ab  MBIM M10,B11     B11 := [M10--]       
085e: 842f: 9e bf  VRB B11          B11==0               
0860: 8430: 63 7b  SAD1 D1,7b       br D1=1,847b         
0862: 8431: f9 7b  TBAM A7,B11      A7.M := B11.M        
0864: 8432: f8 9b  TBAP A9,B11      A9.P := B11.P        
0866: 8433: 8b 7f  ROTA A7          A7.M <-> A7.P        
0868: 8434: f9 7e  TBAM A7,B14      A7.M := B14.M        
086a: 8435: f9 9e  TBAM A9,B14      A9.M := B14.M        
086c: 8436: c8 01  REDI 01          reset DI 0x01        
086e: 8437: 5d 66  CRTB B13,C66     B13 := 0x66          
0870: 8438: 5b f0  CRTB B11,Cf0     B11 := 0xf0          
0872: 8439: 97 7b  AND A7,B11       A7 and B11           
0874: 843a: 63 54  SAD1 D1,54       br D1=1,8454         
0876: 843b: 92 7b  MAIM M7,A11      A11 := [M7--]        
0878: 843c: 99 2b  MBI M2,B11       B11 := [M2]          
087a: 843d: 96 bd  ADDA A11,B13     A11 := A11+B13+DI0   
087c: 843e: 96 bb  ADDA A11,B11     A11 := A11+B11+DI0   
087e: 843f: 65 48  SAD1 D2,48       br D2=1,8448         
0880: 8440: 61 45  SAD1 D0,45       br D0=1,8445         
0882: 8441: 5c 65  CRTB B12,C65     B12 := 0x65          
0884: 8442: c6 bc  SOTA A11,B12     A11 := A11-B12+DI0   
0886: 8443: c8 01  REDI 01          reset DI 0x01        
0888: 8444: 04 4c  SAI 044c         jump 844c            
088a: 8445: 5c 06  CRTB B12,C06     B12 := 0x06          
088c: 8446: c6 bc  SOTA A11,B12     A11 := A11-B12+DI0   
088e: 8447: 04 4e  SAI 044e         jump 844e            
0890: 8448: 61 4e  SAD1 D0,4e       br D0=1,844e         
0892: 8449: 5c 5f  CRTB B12,C5f     B12 := 0x5f          
0894: 844a: c6 bc  SOTA A11,B12     A11 := A11-B12+DI0   
0896: 844b: c8 01  REDI 01          reset DI 0x01        
0898: 844c: 82 2b  AMIM M2,A11      [M2--] := A11        
089a: 844d: 04 56  SAI 0456         jump 8456            
089c: 844e: 82 2b  AMIM M2,A11      [M2--] := A11        
089e: 844f: 91 2b  MAI M2,A11       A11 := [M2]          
08a0: 8450: 85 bf  ICA A11          A11++                
08a2: 8451: a8 2b  AMI M2,A11       [M2] := A11          
08a4: 8452: c8 01  REDI 01          reset DI 0x01        
08a6: 8453: 04 56  SAI 0456         jump 8456            
08a8: 8454: ae 7f  DCA A7           A7--                 
08aa: 8455: ae 2f  DCA A2           A2--                 
08ac: 8456: 5b f0  CRTB B11,Cf0     B11 := 0xf0          
08ae: 8457: 97 9b  AND A9,B11       A9 and B11           
08b0: 8458: 63 72  SAD1 D1,72       br D1=1,8472         
08b2: 8459: 92 9b  MAIM M9,A11      A11 := [M9--]        
08b4: 845a: 99 8b  MBI M8,B11       B11 := [M8]          
08b6: 845b: 96 bd  ADDA A11,B13     A11 := A11+B13+DI0   
08b8: 845c: 96 bb  ADDA A11,B11     A11 := A11+B11+DI0   
08ba: 845d: 65 66  SAD1 D2,66       br D2=1,8466         
08bc: 845e: 61 63  SAD1 D0,63       br D0=1,8463         
08be: 845f: 5c 65  CRTB B12,C65     B12 := 0x65          
08c0: 8460: c6 bc  SOTA A11,B12     A11 := A11-B12+DI0   
08c2: 8461: c8 01  REDI 01          reset DI 0x01        
08c4: 8462: 04 6a  SAI 046a         jump 846a            
08c6: 8463: 5c 06  CRTB B12,C06     B12 := 0x06          
08c8: 8464: c6 bc  SOTA A11,B12     A11 := A11-B12+DI0   
08ca: 8465: 04 6c  SAI 046c         jump 846c            
08cc: 8466: 61 6c  SAD1 D0,6c       br D0=1,846c         
08ce: 8467: 5c 5f  CRTB B12,C5f     B12 := 0x5f          
08d0: 8468: c6 bc  SOTA A11,B12     A11 := A11-B12+DI0   
08d2: 8469: c8 01  REDI 01          reset DI 0x01        
08d4: 846a: 82 8b  AMIM M8,A11      [M8--] := A11        
08d6: 846b: 04 73  SAI 0473         jump 8473            
08d8: 846c: 82 8b  AMIM M8,A11      [M8--] := A11        
08da: 846d: 91 8b  MAI M8,A11       A11 := [M8]          
08dc: 846e: 85 bf  ICA A11          A11++                
08de: 846f: a8 8b  AMI M8,A11       [M8] := A11          
08e0: 8470: c8 01  REDI 01          reset DI 0x01        
08e2: 8471: 04 73  SAI 0473         jump 8473            
08e4: 8472: ae 8f  DCA A8           A8--                 
08e6: 8473: 5b 0f  CRTB B11,C0f     B11 := 0x0f          
08e8: 8474: 97 7b  AND A7,B11       A7 and B11           
08ea: 8475: 62 38  SAD0 D1,38       br D1=0,8438         
08ec: 8476: 97 2b  AND A2,B11       A2 and B11           
08ee: 8477: 63 80  SAD1 D1,80       br D1=1,8480         
08f0: 8478: 96 2f  ADDA A2,B15      A2 := A2+B15+DI0     
08f2: 8479: 96 8f  ADDA A8,B15      A8 := A8+B15+DI0     
08f4: 847a: 04 2e  SAI 042e         jump 842e            
08f6: 847b: ae 2f  DCA A2           A2--                 
08f8: 847c: ae 8f  DCA A8           A8--                 
08fa: 847d: 5b 0f  CRTB B11,C0f     B11 := 0x0f          
08fc: 847e: 97 2b  AND A2,B11       A2 and B11           
08fe: 847f: 62 2e  SAD0 D1,2e       br D1=0,842e         
0900: 8480: c8 07  REDI 07          reset DI 0x07        
0902: 8481: d4 f0  SLSA B15         B15 << DI0           
0904: 8482: f9 2f  TBAM A2,B15      A2.M := B15.M        
0906: 8483: f9 8f  TBAM A8,B15      A8.M := B15.M        
0908: 8484: de 0a  MLIP M0,L10      L10 := [M0++]        
090a: 8485: 0f 00  SAI 0f00         jump 8f00            
090c: 8486: 59 00  CRTB B09,C00     B09 := 0x00          
090e: 8487: 92 27  MAIM M2,A7       A7 := [M2--]         
0910: 8488: 91 89  MAI M8,A9        A9 := [M8]           
0912: 8489: 8b 9f  ROTA A9          A9.M <-> A9.P        
0914: 848a: d9 99  TABP A9,B9       B9.P := A9.P         
0916: 848b: a6 a9  ADDB A10,B9      B9 := A10+B9+DI0     
0918: 848c: 96 7d  ADDA A7,B13      A7 := A7+B13+DI0     
091a: 848d: 96 79  ADDA A7,B9       A7 := A7+B9+DI0      
091c: 848e: 65 97  SAD1 D2,97       br D2=1,8497         
091e: 848f: 61 94  SAD1 D0,94       br D0=1,8494         
0920: 8490: 5c 65  CRTB B12,C65     B12 := 0x65          
0922: 8491: c6 7c  SOTA A7,B12      A7 := A7-B12+DI0     
0924: 8492: c8 01  REDI 01          reset DI 0x01        
0926: 8493: 04 9b  SAI 049b         jump 849b            
0928: 8494: 5c 06  CRTB B12,C06     B12 := 0x06          
092a: 8495: c6 7c  SOTA A7,B12      A7 := A7-B12+DI0     
092c: 8496: 04 9b  SAI 049b         jump 849b            
092e: 8497: 61 9b  SAD1 D0,9b       br D0=1,849b         
0930: 8498: 5c 5f  CRTB B12,C5f     B12 := 0x5f          
0932: 8499: c6 7c  SOTA A7,B12      A7 := A7-B12+DI0     
0934: 849a: c8 01  REDI 01          reset DI 0x01        
0936: 849b: 82 87  AMIM M8,A7       [M8--] := A7         
0938: 849c: e8 99  TABM A9,B9       B9.M := A9.M         
093a: 849d: 97 2a  AND A2,B10       A2 and B10           
093c: 849e: 62 87  SAD0 D1,87       br D1=0,8487         
093e: 849f: d1 00  MLI M0,L0        L0 := [M0]           
0940: 84a0: a0 fe  ICD1 D7,L14      L14++ if D7=1        
0942: 84a1: 61 a5  SAD1 D0,a5       br D0=1,84a5         
0944: 84a2: 63 a4  SAD1 D1,a4       br D1=1,84a4         
0946: 84a3: 04 ae  SAI 04ae         jump 84ae            
0948: 84a4: 04 bd  SAI 04bd         jump 84bd            
094a: 84a5: 63 a7  SAD1 D1,a7       br D1=1,84a7         
094c: 84a6: 04 c0  SAI 04c0         jump 84c0            
094e: 84a7: 9e 7f  VRB B7           B7==0                
0950: 84a8: 63 bc  SAD1 D1,bc       br D1=1,84bc         
0952: 84a9: be 7f  DCB B7           B7--                 
0954: 84aa: 98 a7  MAIP M10,A7      A7 := [M10++]        
0956: 84ab: 99 2f  MBI M2,B15       B15 := [M2]          
0958: 84ac: e8 7f  TABM A7,B15      B15.M := A7.M        
095a: 84ad: 8c 2f  BMIP M2,A15      [M2++] := A15        
095c: 84ae: 9e 7f  VRB B7           B7==0                
095e: 84af: 63 b9  SAD1 D1,b9       br D1=1,84b9         
0960: 84b0: be 7f  DCB B7           B7--                 
0962: 84b1: 98 a7  MAIP M10,A7      A7 := [M10++]        
0964: 84b2: 88 27  AMIP M2,A7       [M2++] := A7         
0966: 84b3: 9e 7f  VRB B7           B7==0                
0968: 84b4: 63 b7  SAD1 D1,b7       br D1=1,84b7         
096a: 84b5: be 7f  DCB B7           B7--                 
096c: 84b6: 04 ae  SAI 04ae         jump 84ae            
096e: 84b7: c9 03  SEDI 03          set DI 0x03          
0970: 84b8: 04 ba  SAI 04ba         jump 84ba            
0972: 84b9: c8 03  REDI 03          reset DI 0x03        
0974: 84ba: 60 bc  SAD0 D0,bc       br D0=0,84bc         
0976: 84bb: e5 2f  DCL L2           L2--                 
0978: 84bc: 07 a1  SAI 07a1         jump 87a1            
097a: 84bd: 98 a7  MAIP M10,A7      A7 := [M10++]        
097c: 84be: 8b 7f  ROTA A7          A7.M <-> A7.P        
097e: 84bf: 04 cb  SAI 04cb         jump 84cb            
0980: 84c0: 99 2f  MBI M2,B15       B15 := [M2]          
0982: 84c1: 9e 7f  VRB B7           B7==0                
0984: 84c2: 62 c6  SAD0 D1,c6       br D1=0,84c6         
0986: 84c3: 04 bc  SAI 04bc         jump 84bc            
0988: 84c4: 9e 7f  VRB B7           B7==0                
098a: 84c5: 63 d0  SAD1 D1,d0       br D1=1,84d0         
098c: 84c6: be 7f  DCB B7           B7--                 
098e: 84c7: 98 a7  MAIP M10,A7      A7 := [M10++]        
0990: 84c8: 8b 7f  ROTA A7          A7.M <-> A7.P        
0992: 84c9: e8 7f  TABM A7,B15      B15.M := A7.M        
0994: 84ca: 8c 2f  BMIP M2,A15      [M2++] := A15        
0996: 84cb: d9 7f  TABP A7,B15      B15.P := A7.P        
0998: 84cc: 9e 7f  VRB B7           B7==0                
099a: 84cd: 63 d3  SAD1 D1,d3       br D1=1,84d3         
099c: 84ce: be 7f  DCB B7           B7--                 
099e: 84cf: 04 c4  SAI 04c4         jump 84c4            
09a0: 84d0: 8c 2f  BMIP M2,A15      [M2++] := A15        
09a2: 84d1: c9 01  SEDI 01          set DI 0x01          
09a4: 84d2: 04 ba  SAI 04ba         jump 84ba            
09a6: 84d3: c8 01  REDI 01          reset DI 0x01        
09a8: 84d4: 04 ba  SAI 04ba         jump 84ba            
09aa: 84d5: c8 01  REDI 01          reset DI 0x01        
09ac: 84d6: 5f 66  CRTB B15,C66     B15 := 0x66          
09ae: 84d7: 77 00  CRTA A07,C00     A07 := 0x00          
09b0: 84d8: 9a ab  MBIM M10,B11     B11 := [M10--]       
09b2: 84d9: a6 7b  ADDB A7,B11      B11 := A7+B11+DI0    
09b4: 84da: 92 9b  MAIM M9,A11      A11 := [M9--]        
09b6: 84db: 96 bf  ADDA A11,B15     A11 := A11+B15+DI0   
09b8: 84dc: 96 bb  ADDA A11,B11     A11 := A11+B11+DI0   
09ba: 84dd: 64 e3  SAD0 D2,e3       br D2=0,84e3         
09bc: 84de: 60 eb  SAD0 D0,eb       br D0=0,84eb         
09be: 84df: 82 2b  AMIM M2,A11      [M2--] := A11        
09c0: 84e0: be 7f  DCB B7           B7--                 
09c2: 84e1: 62 d8  SAD0 D1,d8       br D1=0,84d8         
09c4: 84e2: 07 a1  SAI 07a1         jump 87a1            
09c6: 84e3: 60 e7  SAD0 D0,e7       br D0=0,84e7         
09c8: 84e4: 5b 06  CRTB B11,C06     B11 := 0x06          
09ca: 84e5: c6 bb  SOTA A11,B11     A11 := A11-B11+DI0   
09cc: 84e6: 04 df  SAI 04df         jump 84df            
09ce: 84e7: 5b 65  CRTB B11,C65     B11 := 0x65          
09d0: 84e8: c6 bb  SOTA A11,B11     A11 := A11-B11+DI0   
09d2: 84e9: c8 01  REDI 01          reset DI 0x01        
09d4: 84ea: 04 df  SAI 04df         jump 84df            
09d6: 84eb: 5b 5f  CRTB B11,C5f     B11 := 0x5f          
09d8: 84ec: 04 e8  SAI 04e8         jump 84e8            
09da: 84ed: c9 01  SEDI 01          set DI 0x01          
09dc: 84ee: 92 9b  MAIM M9,A11      A11 := [M9--]        
09de: 84ef: 9a ab  MBIM M10,B11     B11 := [M10--]       
09e0: 84f0: c6 bb  SOTA A11,B11     A11 := A11-B11+DI0   
09e2: 84f1: 65 fe  SAD1 D2,fe       br D2=1,84fe         
09e4: 84f2: 61 fb  SAD1 D0,fb       br D0=1,84fb         
09e6: 84f3: 5b 65  CRTB B11,C65     B11 := 0x65          
09e8: 84f4: c6 bb  SOTA A11,B11     A11 := A11-B11+DI0   
09ea: 84f5: c8 01  REDI 01          reset DI 0x01        
09ec: 84f6: 82 2b  AMIM M2,A11      [M2--] := A11        
09ee: 84f7: be 7f  DCB B7           B7--                 
09f0: 84f8: 62 ee  SAD0 D1,ee       br D1=0,84ee         
09f2: 84f9: 92 eb  MAIM A14,A11     A11 := [A14--]       
09f4: 84fa: d1 e0  MLI A14,L0       L0 := [A14]          
09f6: 84fb: 5b 06  CRTB B11,C06     B11 := 0x06          
09f8: 84fc: c6 bb  SOTA A11,B11     A11 := A11-B11+DI0   
09fa: 84fd: 04 f6  SAI 04f6         jump 84f6            
09fc: 84fe: 61 f6  SAD1 D0,f6       br D0=1,84f6         
09fe: 84ff: 5b 5f  CRTB B11,C5f     B11 := 0x5f          
0a00: 8500: 04 f4  SAI 04f4         jump 84f4            
0a02: 8501: de 02  MLIP M0,L2       L2 := [M0++]         
0a04: 8502: 01 b0  SAI 01b0         jump 81b0            
0a06: 8503: 57 07  CRTB B07,C07     B07 := 0x07          
0a08: 8504: 67 06  SAD1 D3,06       br D3=1,8506         
0a0a: 8505: 57 04  CRTB B07,C04     B07 := 0x04          
0a0c: 8506: c8 01  REDI 01          reset DI 0x01        
0a0e: 8507: 96 97  ADDA A9,B7       A9 := A9+B7+DI0      
0a10: 8508: 60 0a  SAD0 D0,0a       br D0=0,850a         
0a12: 8509: 95 9f  ICB B9           B9++                 
0a14: 850a: e5 9f  DCL L9           L9--                 
0a16: 850b: f9 a7  TBAM A10,B7      A10.M := B7.M        
0a18: 850c: c8 01  REDI 01          reset DI 0x01        
0a1a: 850d: 96 27  ADDA A2,B7       A2 := A2+B7+DI0      
0a1c: 850e: 60 10  SAD0 D0,10       br D0=0,8510         
0a1e: 850f: 95 2f  ICB B2           B2++                 
0a20: 8510: e2 e0  LPMIP A14,L0     [A14++] := ++L0      
0a22: 8511: 04 ed  SAI 04ed         jump 84ed            
0a24: 8512: a5 9f  ICL L9           L9++                 
0a26: 8513: 92 eb  MAIM A14,A11     A11 := [A14--]       
0a28: 8514: d1 e0  MLI A14,L0       L0 := [A14]          
0a2a: 8515: c9 01  SEDI 01          set DI 0x01          
0a2c: 8516: 98 9b  MAIP M9,A11      A11 := [M9++]        
0a2e: 8517: 9c ab  MBIP M10,B11     B11 := [M10++]       
0a30: 8518: b6 bb  SOT A11,B11      A11-B11+DI0          
0a32: 8519: 62 1c  SAD0 D1,1c       br D1=0,851c         
0a34: 851a: be ef  DCB B14          B14--                
0a36: 851b: 62 16  SAD0 D1,16       br D1=0,8516         
0a38: 851c: 92 e7  MAIM A14,A7      A7 := [A14--]        
0a3a: 851d: d1 e0  MLI A14,L0       L0 := [A14]          
0a3c: 851e: d1 00  MLI M0,L0        L0 := [M0]           
  !addr
0a3e: 851f: a0 f8  ICD1 D7,L8       L8++ if D7=1         
0a40: 8520: d1 00  MLI M0,L0        L0 := [M0]           
  !addr
0a42: 8521: a0 fb  ICD1 D7,L11      L11++ if D7=1        
0a44: 8522: d1 00  MLI M0,L0        L0 := [M0]           
  !addr
0a46: 8523: a0 fc  ICD1 D7,L12      L12++ if D7=1        
0a48: 8524: d1 00  MLI M0,L0        L0 := [M0]           
  !addr
0a4a: 8525: a0 f1  ICD1 D7,L1       L1++ if D7=1         
0a4c: 8526: d1 00  MLI M0,L0        L0 := [M0]           
  !addr
0a4e: 8527: a0 f2  ICD1 D7,L2       L2++ if D7=1         
0a50: 8528: d1 00  MLI M0,L0        L0 := [M0]           
  !addr
0a52: 8529: a0 f3  ICD1 D7,L3       L3++ if D7=1         
0a54: 852a: d1 00  MLI M0,L0        L0 := [M0]           
  !addr
0a56: 852b: a0 f4  ICD1 D7,L4       L4++ if D7=1         
0a58: 852c: d1 00  MLI M0,L0        L0 := [M0]           
  !addr
0a5a: 852d: a0 f6  ICD1 D7,L6       L6++ if D7=1         
  ; from opcodes 10..1f:
  ;   B2 = opcode
  ;   A9  = register addr
  ;   A10 = register addr
0a5c: 852e: 9b 2f  ROTB B2          B2.M <-> B2.P        
0a5e: 852f: f9 02  TBAM A0,B2       A0.M := B2.M         
0a60: 8530: 07 a3  SAI 07a3         jump 87a3            
  ; LPR        
0a62: 8531: 07 b0  SAI 07b0         jump 87b0            
  ; LNR
0a64: 8532: 07 bc  SAI 07bc         jump 87bc            
  ; LTR
0a66: 8533: 07 c4  SAI 07c4         jump 87c4            
  ; LCR
0a68: 8534: 05 e0  SAI 05e0         jump 85e0            
  ; NR
0a6a: 8535: 07 00  SAI 0700         jump 8700            
  ; CLR
0a6c: 8536: 05 e2  SAI 05e2         jump 85e2            
  ; OR
0a6e: 8537: 05 e5  SAI 05e5         jump 85e5            
  ; XR
0a70: 8538: 06 fb  SAI 06fb         jump 86fb            
  ; LR
0a72: 8539: 06 cc  SAI 06cc         jump 86cc            
  ; CR
0a74: 853a: 06 ef  SAI 06ef         jump 86ef            
  ; AR
0a76: 853b: 06 f2  SAI 06f2         jump 86f2            
  ; SR
0a78: 853c: 05 20  SAI 0520         jump 8520            
  ; .
0a7a: 853d: 05 20  SAI 0520         jump 8520            
  ; .
0a7c: 853e: 06 f5  SAI 06f5         jump 86f5            
  ; ALR
0a7e: 853f: 06 f8  SAI 06f8         jump 86f8            
  ; SLR
0a80: 8540: d8 2c  TAB A2,B12       B12 := A2            
0a82: 8541: d4 c0  SLSA B12         B12 << DI0           
0a84: 8542: de 09  MLIP M0,L9       L9 := [M0++]         
0a86: 8543: 01 60  SAI 0160         jump 8160            
0a88: 8544: 96 9c  ADDA A9,B12      A9 := A9+B12+DI0     
0a8a: 8545: a5 af  ICL L10          L10++                
0a8c: 8546: d1 aa  MLI M10,L10      L10 := [M10]         
0a8e: 8547: 9e df  VRB B13          B13==0               
0a90: 8548: 62 4b  SAD0 D1,4b       br D1=0,854b         
0a92: 8549: c9 10  SEDI 10          set DI 0x10          
0a94: 854a: 05 50  SAI 0550         jump 8550            
0a96: 854b: d3 a0  SLDB B10         B10 >> DI0           
0a98: 854c: c3 a1  SLDA A10,C1      A10 >> DI0           
0a9a: 854d: c8 30  REDI 30          reset DI 0x30        
0a9c: 854e: 60 50  SAD0 D0,50       br D0=0,8550         
0a9e: 854f: c9 20  SEDI 20          set DI 0x20          
0aa0: 8550: d3 20  SLDB B2          B2 >> DI0            
0aa2: 8551: 61 74  SAD1 D0,74       br D0=1,8574         
0aa4: 8552: c8 08  REDI 08          reset DI 0x08        
0aa6: 8553: de 92  MLIP M9,L2       L2 := [M9++]         
0aa8: 8554: d1 97  MLI M9,L7        L7 := [M9]           
0aaa: 8555: f5 7f  VRL L7           L7==0                
0aac: 8556: 62 58  SAD0 D1,58       br D1=0,8558         
0aae: 8557: c9 08  SEDI 08          set DI 0x08          
0ab0: 8558: e5 7f  DCL L7           L7--                 
0ab2: 8559: ed 97  LMIM M9,L7       [M9--] := L7         
0ab4: 855a: 66 5e  SAD0 D3,5e       br D3=0,855e         
0ab6: 855b: e5 2f  DCL L2           L2--                 
0ab8: 855c: e1 92  LMI M9,L2        [M9] := L2           
0aba: 855d: 05 61  SAI 0561         jump 8561            
0abc: 855e: 62 61  SAD0 D1,61       br D1=0,8561         
0abe: 855f: f5 2f  VRL L2           L2==0                
0ac0: 8560: 63 65  SAD1 D1,65       br D1=1,8565         
0ac2: 8561: 69 65  SAD1 D4,65       br D4=1,8565         
0ac4: 8562: 6b 66  SAD1 D5,66       br D5=1,8566         
0ac6: 8563: bc a8  SLL L10,L8       L10 <-> L8           
0ac8: 8564: ba 88  SAB A8,B8        A8 <-> B8            
0aca: 8565: 07 fb  SAI 07fb         jump 87fb            
0acc: 8566: d1 00  MLI M0,L0        L0 := [M0]           
0ace: 8567: a0 f5  ICD1 D7,L5       L5++ if D7=1         
0ad0: 8568: a5 af  ICL L10          L10++                
0ad2: 8569: d1 aa  MLI M10,L10      L10 := [M10]         
0ad4: 856a: d3 a0  SLDB B10         B10 >> DI0           
0ad6: 856b: c3 a1  SLDA A10,C1      A10 >> DI0           
0ad8: 856c: d8 27  TAB A2,B7        B7 := A2             
0ada: 856d: 32 ec  MAD A02,Cec      A2 := [ec]           
0adc: 856e: c8 20  REDI 20          reset DI 0x20        
0ade: 856f: 60 71  SAD0 D0,71       br D0=0,8571         
0ae0: 8570: c9 20  SEDI 20          set DI 0x20          
0ae2: 8571: 97 27  AND A2,B7        A2 and B7            
0ae4: 8572: 62 62  SAD0 D1,62       br D1=0,8562         
0ae6: 8573: 07 fb  SAI 07fb         jump 87fb            
0ae8: 8574: c8 0b  REDI 0b          reset DI 0x0b        
0aea: 8575: de 07  MLIP M0,L7       L7 := [M0++]         
0aec: 8576: 00 76  SAI 0076         jump 8076            
0aee: 8577: d1 7b  MLI M7,L11       L11 := [M7]          
0af0: 8578: 57 40  CRTB B07,C40     B07 := 0x40          
0af2: 8579: 96 b7  ADDA A11,B7      A11 := A11+B7+DI0    
0af4: 857a: 87 bb  ORB A11,B11      B11 := A11 or B11    
0af6: 857b: 3b ee  MAD A11,Cee      A11 := [ee]          
0af8: 857c: e8 bb  TABM A11,B11     B11.M := A11.M       
0afa: 857d: 7b 00  CRTA A11,C00     A11 := 0x00          
0afc: 857e: ee 9b  LMIP M9,L11      [M9++] := L11        
0afe: 857f: 37 d8  MAD A07,Cd8      A7 := [d8]           
0b00: 8580: 8e 7f  VRA A7           A7==0                
0b02: 8581: 63 88  SAD1 D1,88       br D1=1,8588         
0b04: 8582: 77 00  CRTA A07,C00     A07 := 0x00          
0b06: 8583: 27 d8  AMD A07,Cd8      [d8] := A7           
0b08: 8584: de 07  MLIP M0,L7       L7 := [M0++]         
0b0a: 8585: 00 6d  SAI 006d         jump 806d            
0b0c: 8586: d1 77  MLI M7,L7        L7 := [M7]           
0b0e: 8587: 05 8b  SAI 058b         jump 858b            
0b10: 8588: d8 87  TAB A8,B7        B7 := A8             
0b12: 8589: e9 78  TBA A7,B8        A7 := B8             
0b14: 858a: ba 77  SAB A7,B7        A7 <-> B7            
0b16: 858b: c4 70  SLSA A7,C0       A7 << DI0            
0b18: 858c: d4 71  SLSA B7          B7 << DI0            
0b1a: 858d: 66 90  SAD0 D3,90       br D3=0,8590         
0b1c: 858e: d1 00  MLI M0,L0        L0 := [M0]           
0b1e: 858f: a0 fa  ICD1 D7,L10      L10++ if D7=1        
0b20: 8590: e1 97  LMI M9,L7        [M9] := L7           
0b22: 8591: 05 61  SAI 0561         jump 8561            
0b24: 8592: c8 18  REDI 18          reset DI 0x18        
0b26: 8593: de 97  MLIP M9,L7       L7 := [M9++]         
0b28: 8594: ee e7  LMIP A14,L7      [A14++] := L7        
0b2a: 8595: dd 97  MLIM M9,L7       L7 := [M9--]         
0b2c: 8596: ee e7  LMIP A14,L7      [A14++] := L7        
0b2e: 8597: d3 20  SLDB B2          B2 >> DI0            
0b30: 8598: 60 9a  SAD0 D0,9a       br D0=0,859a         
0b32: 8599: c9 08  SEDI 08          set DI 0x08          
0b34: 859a: e2 e0  LPMIP A14,L0     [A14++] := ++L0      
0b36: 859b: 06 00  SAI 0600         jump 8600            
0b38: 859c: d3 d0  SLDB B13         B13 >> DI0           
0b3a: 859d: d3 d0  SLDB B13         B13 >> DI0           
0b3c: 859e: 61 a1  SAD1 D0,a1       br D0=1,85a1         
0b3e: 859f: a5 af  ICL L10          L10++                
0b40: 85a0: a5 af  ICL L10          L10++                
0b42: 85a1: ae ef  DCA A14          A14--                
0b44: 85a2: ae ef  DCA A14          A14--                
0b46: 85a3: d8 a2  TAB A10,B2       B2 := A10            
0b48: 85a4: c7 92  ORE A9,B2        A9 xor B2            
0b4a: 85a5: 62 a8  SAD0 D1,a8       br D1=0,85a8         
0b4c: 85a6: de 0a  MLIP M0,L10      L10 := [M0++]        
0b4e: 85a7: 00 78  SAI 0078         jump 8078            
0b50: 85a8: 06 cd  SAI 06cd         jump 86cd            
0b52: 85a9: 66 b1  SAD0 D3,b1       br D3=0,85b1         
0b54: 85aa: 61 b2  SAD1 D0,b2       br D0=1,85b2         
0b56: 85ab: d3 b0  SLDB B11         B11 >> DI0           
0b58: 85ac: c3 b1  SLDA A11,C1      A11 >> DI0           
0b5a: 85ad: 61 66  SAD1 D0,66       br D0=1,8566         
0b5c: 85ae: bc b8  SLL L11,L8       L11 <-> L8           
0b5e: 85af: ba 88  SAB A8,B8        A8 <-> B8            
0b60: 85b0: 07 fb  SAI 07fb         jump 87fb            
0b62: 85b1: 61 ab  SAD1 D0,ab       br D0=1,85ab         
0b64: 85b2: 07 fb  SAI 07fb         jump 87fb            
0b66: 85b3: 77 00  CRTA A07,C00     A07 := 0x00          
0b68: 85b4: c9 10  SEDI 10          set DI 0x10          
0b6a: 85b5: de 0b  MLIP M0,L11      L11 := [M0++]        
0b6c: 85b6: 01 a0  SAI 01a0         jump 81a0            
0b6e: 85b7: 57 30  CRTB B07,C30     B07 := 0x30          
0b70: 85b8: 52 00  CRTB B02,C00     B02 := 0x00          
0b72: 85b9: 9e df  VRB B13          B13==0               
0b74: 85ba: 63 de  SAD1 D1,de       br D1=1,85de         
0b76: 85bb: be df  DCB B13          B13--                
0b78: 85bc: 95 2f  ICB B2           B2++                 
0b7a: 85bd: 98 a2  MAIP M10,A2      A2 := [M10++]        
0b7c: 85be: c7 27  ORE A2,B7        A2 xor B7            
0b7e: 85bf: 63 b9  SAD1 D1,b9       br D1=1,85b9         
0b80: 85c0: 95 df  ICB B13          B13++                
0b82: 85c1: be 2f  DCB B2           B2--                 
0b84: 85c2: 9a a7  MBIM M10,B7      B7 := [M10--]        
0b86: 85c3: 57 30  CRTB B07,C30     B07 := 0x30          
0b88: 85c4: 5e 3a  CRTB B14,C3a     B14 := 0x3a          
0b8a: 85c5: 68 c8  SAD0 D4,c8       br D4=0,85c8         
0b8c: 85c6: 91 b2  MAI M11,A2       A2 := [M11]          
0b8e: 85c7: d9 2c  TABP A2,B12      B12.P := A2.P        
0b90: 85c8: 9e df  VRB B13          B13==0               
0b92: 85c9: 63 dc  SAD1 D1,dc       br D1=1,85dc         
0b94: 85ca: be df  DCB B13          B13--                
0b96: 85cb: 98 a2  MAIP M10,A2      A2 := [M10++]        
0b98: 85cc: c9 01  SEDI 01          set DI 0x01          
0b9a: 85cd: b6 27  SOT A2,B7        A2-B7+DI0            
0b9c: 85ce: 60 db  SAD0 D0,db       br D0=0,85db         
0b9e: 85cf: b6 2e  SOT A2,B14       A2-B14+DI0           
0ba0: 85d0: 61 db  SAD1 D0,db       br D0=1,85db         
0ba2: 85d1: 85 7f  ICA A7           A7++                 
0ba4: 85d2: 69 d7  SAD1 D4,d7       br D4=1,85d7         
0ba6: 85d3: 8b 2f  ROTA A2          A2.M <-> A2.P        
0ba8: 85d4: d9 2c  TABP A2,B12      B12.P := A2.P        
0baa: 85d5: c9 10  SEDI 10          set DI 0x10          
0bac: 85d6: 05 c8  SAI 05c8         jump 85c8            
0bae: 85d7: e8 2c  TABM A2,B12      B12.M := A2.M        
0bb0: 85d8: 8c bc  BMIP M11,A12     [M11++] := A12       
0bb2: 85d9: c8 10  REDI 10          reset DI 0x10        
0bb4: 85da: 05 c8  SAI 05c8         jump 85c8            
0bb6: 85db: 95 df  ICB B13          B13++                
0bb8: 85dc: 68 de  SAD0 D4,de       br D4=0,85de         
0bba: 85dd: 8c bc  BMIP M11,A12     [M11++] := A12       
0bbc: 85de: ae ef  DCA A14          A14--                
0bbe: 85df: d1 e0  MLI A14,L0       L0 := [A14]          
0bc0: 85e0: c9 10  SEDI 10          set DI 0x10          
0bc2: 85e1: 05 e6  SAI 05e6         jump 85e6            
0bc4: 85e2: c9 20  SEDI 20          set DI 0x20          
0bc6: 85e3: c8 10  REDI 10          reset DI 0x10        
0bc8: 85e4: 05 e6  SAI 05e6         jump 85e6            
0bca: 85e5: c8 30  REDI 30          reset DI 0x30        
0bcc: 85e6: c8 08  REDI 08          reset DI 0x08        
0bce: 85e7: 72 02  CRTA A02,C02     A02 := 0x02          
0bd0: 85e8: d1 97  MLI M9,L7        L7 := [M9]           
0bd2: 85e9: de ab  MLIP M10,L11     L11 := [M10++]       
0bd4: 85ea: ba bb  SAB A11,B11      A11 <-> B11          
0bd6: 85eb: 69 f8  SAD1 D4,f8       br D4=1,85f8         
0bd8: 85ec: 6b fb  SAD1 D5,fb       br D5=1,85fb         
0bda: 85ed: d7 7b  OREA A7,B11      A7 := A7 xor B11     
0bdc: 85ee: e7 b7  OREB A11,B7      B7 := A11 xor B7     
0bde: 85ef: f5 7f  VRL L7           L7==0                
0be0: 85f0: 63 f2  SAD1 D1,f2       br D1=1,85f2         
0be2: 85f1: c9 08  SEDI 08          set DI 0x08          
0be4: 85f2: ee 97  LMIP M9,L7       [M9++] := L7         
0be6: 85f3: ae 2f  DCA A2           A2--                 
0be8: 85f4: 62 e8  SAD0 D1,e8       br D1=0,85e8         
0bea: 85f5: 66 f7  SAD0 D3,f7       br D3=0,85f7         
0bec: 85f6: 05 26  SAI 0526         jump 8526            
0bee: 85f7: 05 24  SAI 0524         jump 8524            
0bf0: 85f8: a7 7b  ANDA A7,B11      A7 := A7 and B11     
0bf2: 85f9: b7 b7  ANDB A11,B7      B7 := A11 and B7     
0bf4: 85fa: 05 ef  SAI 05ef         jump 85ef            
0bf6: 85fb: f6 7b  ORA A7,B11       A7 := A7 or B11      
0bf8: 85fc: 87 b7  ORB A11,B7       B7 := A11 or B7      
0bfa: 85fd: 05 ef  SAI 05ef         jump 85ef            
0bfc: 85fe: 4e 10  SADE e 10                             
0bfe: 85ff: 00 00  SAI 0000         jump 8000            
0c00: 8600: a5 af  ICL L10          L10++                
0c02: 8601: dd a7  MLIM M10,L7      L7 := [M10--]        
0c04: 8602: a5 9f  ICL L9           L9++                 
0c06: 8603: d1 92  MLI M9,L2        L2 := [M9]           
0c08: 8604: c8 21  REDI 21          reset DI 0x21        
0c0a: 8605: ba 22  SAB A2,B2        A2 <-> B2            
0c0c: 8606: 96 72  ADDA A7,B2       A7 := A7+B2+DI0      
0c0e: 8607: a6 27  ADDB A2,B7       B7 := A2+B7+DI0      
0c10: 8608: ed 97  LMIM M9,L7       [M9--] := L7         
0c12: 8609: d1 97  MLI M9,L7        L7 := [M9]           
0c14: 860a: d1 a2  MLI M10,L2       L2 := [M10]          
0c16: 860b: ba 27  SAB A2,B7        A2 <-> B7            
0c18: 860c: d8 2f  TAB A2,B15       B15 := A2            
0c1a: 860d: 96 77  ADDA A7,B7       A7 := A7+B7+DI0      
0c1c: 860e: 96 22  ADDA A2,B2       A2 := A2+B2+DI0      
0c1e: 860f: d8 27  TAB A2,B7        B7 := A2             
0c20: 8610: e1 97  LMI M9,L7        [M9] := L7           
0c22: 8611: ae ef  DCA A14          A14--                
0c24: 8612: d1 e0  MLI A14,L0       L0 := [A14]          
0c26: 8613: c8 01  REDI 01          reset DI 0x01        
0c28: 8614: 91 9b  MAI M9,A11       A11 := [M9]          
0c2a: 8615: 9a ab  MBIM M10,B11     B11 := [M10--]       
0c2c: 8616: 96 bb  ADDA A11,B11     A11 := A11+B11+DI0   
0c2e: 8617: 82 9b  AMIM M9,A11      [M9--] := A11        
0c30: 8618: 62 21  SAD0 D1,21       br D1=0,8621         
0c32: 8619: ae 2f  DCA A2           A2--                 
0c34: 861a: 62 14  SAD0 D1,14       br D1=0,8614         
0c36: 861b: c8 10  REDI 10          reset DI 0x10        
0c38: 861c: 06 23  SAI 0623         jump 8623            
0c3a: 861d: 91 9b  MAI M9,A11       A11 := [M9]          
0c3c: 861e: 9a ab  MBIM M10,B11     B11 := [M10--]       
0c3e: 861f: 96 bb  ADDA A11,B11     A11 := A11+B11+DI0   
0c40: 8620: 82 9b  AMIM M9,A11      [M9--] := A11        
0c42: 8621: ae 2f  DCA A2           A2--                 
0c44: 8622: 62 1d  SAD0 D1,1d       br D1=0,861d         
0c46: 8623: ae ef  DCA A14          A14--                
0c48: 8624: d1 e0  MLI A14,L0       L0 := [A14]          
0c4a: 8625: 91 9b  MAI M9,A11       A11 := [M9]          
0c4c: 8626: 96 bb  ADDA A11,B11     A11 := A11+B11+DI0   
0c4e: 8627: 82 9b  AMIM M9,A11      [M9--] := A11        
0c50: 8628: 69 2b  SAD1 D4,2b       br D4=1,862b         
0c52: 8629: 63 2b  SAD1 D1,2b       br D1=1,862b         
0c54: 862a: c9 10  SEDI 10          set DI 0x10          
0c56: 862b: ae 7f  DCA A7           A7--                 
0c58: 862c: 62 25  SAD0 D1,25       br D1=0,8625         
0c5a: 862d: ae ef  DCA A14          A14--                
0c5c: 862e: d1 e0  MLI A14,L0       L0 := [A14]          
0c5e: 862f: a5 af  ICL L10          L10++                
0c60: 8630: dd a7  MLIM M10,L7      L7 := [M10--]        
0c62: 8631: a5 9f  ICL L9           L9++                 
0c64: 8632: d1 92  MLI M9,L2        L2 := [M9]           
0c66: 8633: c9 21  SEDI 21          set DI 0x21          
0c68: 8634: ba 22  SAB A2,B2        A2 <-> B2            
0c6a: 8635: ba 72  SAB A7,B2        A7 <-> B2            
0c6c: 8636: c6 72  SOTA A7,B2       A7 := A7-B2+DI0      
0c6e: 8637: d6 27  SOTB A2,B7       B7 := A2-B7+DI0      
0c70: 8638: ed 97  LMIM M9,L7       [M9--] := L7         
0c72: 8639: d1 97  MLI M9,L7        L7 := [M9]           
0c74: 863a: d1 a2  MLI M10,L2       L2 := [M10]          
0c76: 863b: ba 27  SAB A2,B7        A2 <-> B7            
0c78: 863c: c6 77  SOTA A7,B7       A7 := A7-B7+DI0      
0c7a: 863d: d8 2f  TAB A2,B15       B15 := A2            
0c7c: 863e: c6 22  SOTA A2,B2       A2 := A2-B2+DI0      
0c7e: 863f: d8 27  TAB A2,B7        B7 := A2             
0c80: 8640: e1 97  LMI M9,L7        [M9] := L7           
0c82: 8641: ae ef  DCA A14          A14--                
0c84: 8642: d1 e0  MLI A14,L0       L0 := [A14]          
0c86: 8643: 91 9b  MAI M9,A11       A11 := [M9]          
0c88: 8644: 9a ab  MBIM M10,B11     B11 := [M10--]       
0c8a: 8645: c6 bb  SOTA A11,B11     A11 := A11-B11+DI0   
0c8c: 8646: 82 9b  AMIM M9,A11      [M9--] := A11        
0c8e: 8647: 62 50  SAD0 D1,50       br D1=0,8650         
0c90: 8648: ae 2f  DCA A2           A2--                 
0c92: 8649: 62 43  SAD0 D1,43       br D1=0,8643         
0c94: 864a: c8 10  REDI 10          reset DI 0x10        
0c96: 864b: 06 52  SAI 0652         jump 8652            
0c98: 864c: 91 9b  MAI M9,A11       A11 := [M9]          
0c9a: 864d: 9a ab  MBIM M10,B11     B11 := [M10--]       
0c9c: 864e: c6 bb  SOTA A11,B11     A11 := A11-B11+DI0   
0c9e: 864f: 82 9b  AMIM M9,A11      [M9--] := A11        
0ca0: 8650: ae 2f  DCA A2           A2--                 
0ca2: 8651: 62 4c  SAD0 D1,4c       br D1=0,864c         
0ca4: 8652: ae ef  DCA A14          A14--                
0ca6: 8653: d1 e0  MLI A14,L0       L0 := [A14]          
0ca8: 8654: 91 9b  MAI M9,A11       A11 := [M9]          
0caa: 8655: c6 bb  SOTA A11,B11     A11 := A11-B11+DI0   
0cac: 8656: 82 9b  AMIM M9,A11      [M9--] := A11        
0cae: 8657: 69 5a  SAD1 D4,5a       br D4=1,865a         
0cb0: 8658: 63 5a  SAD1 D1,5a       br D1=1,865a         
0cb2: 8659: c9 10  SEDI 10          set DI 0x10          
0cb4: 865a: ae 7f  DCA A7           A7--                 
0cb6: 865b: 62 54  SAD0 D1,54       br D1=0,8654         
0cb8: 865c: ae ef  DCA A14          A14--                
0cba: 865d: d1 e0  MLI A14,L0       L0 := [A14]          
0cbc: 865e: 7b 00  CRTA A11,C00     A11 := 0x00          
0cbe: 865f: c8 01  REDI 01          reset DI 0x01        
0cc0: 8660: 96 9c  ADDA A9,B12      A9 := A9+B12+DI0     
0cc2: 8661: a6 b9  ADDB A11,B9      B9 := A11+B9+DI0     
0cc4: 8662: c8 01  REDI 01          reset DI 0x01        
0cc6: 8663: 96 ad  ADDA A10,B13     A10 := A10+B13+DI0   
0cc8: 8664: a6 ba  ADDB A11,B10     B10 := A11+B10+DI0   
0cca: 8665: 95 cf  ICB B12          B12++                
0ccc: 8666: 95 df  ICB B13          B13++                
0cce: 8667: e9 7c  TBA A7,B12       A7 := B12            
0cd0: 8668: e9 2d  TBA A2,B13       A2 := B13            
0cd2: 8669: c9 19  SEDI 19          set DI 0x19          
0cd4: 866a: c6 7d  SOTA A7,B13      A7 := A7-B13+DI0     
0cd6: 866b: 63 71  SAD1 D1,71       br D1=1,8671         
0cd8: 866c: 61 72  SAD1 D0,72       br D0=1,8672         
0cda: 866d: c9 01  SEDI 01          set DI 0x01          
0cdc: 866e: e9 2c  TBA A2,B12       A2 := B12            
0cde: 866f: e9 7d  TBA A7,B13       A7 := B13            
0ce0: 8670: c6 7c  SOTA A7,B12      A7 := A7-B12+DI0     
0ce2: 8671: c8 08  REDI 08          reset DI 0x08        
0ce4: 8672: ae ef  DCA A14          A14--                
0ce6: 8673: d1 e0  MLI A14,L0       L0 := [A14]          
0ce8: 8674: ba bb  SAB A11,B11      A11 <-> B11          
0cea: 8675: 9e df  VRB B13          B13==0               
0cec: 8676: 62 79  SAD0 D1,79       br D1=0,8679         
0cee: 8677: bc ab  SLL L10,L11      L10 <-> L11          
0cf0: 8678: 06 7d  SAI 067d         jump 867d            
0cf2: 8679: a5 af  ICL L10          L10++                
0cf4: 867a: d1 aa  MLI M10,L10      L10 := [M10]         
0cf6: 867b: 96 ab  ADDA A10,B11     A10 := A10+B11+DI0   
0cf8: 867c: a6 ba  ADDB A11,B10     B10 := A11+B10+DI0   
0cfa: 867d: d3 a0  SLDB B10         B10 >> DI0           
0cfc: 867e: c3 a1  SLDA A10,C1      A10 >> DI0           
0cfe: 867f: ae ef  DCA A14          A14--                
0d00: 8680: d1 e0  MLI A14,L0       L0 := [A14]          
0d02: 8681: d8 2d  TAB A2,B13       B13 := A2            
0d04: 8682: 8b 2f  ROTA A2          A2.M <-> A2.P        
0d06: 8683: bb 2f  AZAP A2          A2.P := 0            
0d08: 8684: db df  AZBP B13         B13.P := 0           
0d0a: 8685: d4 d0  SLSA B13         B13 << DI0           
0d0c: 8686: d4 d0  SLSA B13         B13 << DI0           
0d0e: 8687: de 0a  MLIP M0,L10      L10 := [M0++]        
0d10: 8688: 02 c0  SAI 02c0         jump 82c0            
0d12: 8689: 96 ad  ADDA A10,B13     A10 := A10+B13+DI0   
0d14: 868a: d8 2c  TAB A2,B12       B12 := A2            
0d16: 868b: d4 c0  SLSA B12         B12 << DI0           
0d18: 868c: d4 c0  SLSA B12         B12 << DI0           
0d1a: 868d: de 09  MLIP M0,L9       L9 := [M0++]         
0d1c: 868e: 02 c0  SAI 02c0         jump 82c0            
0d1e: 868f: 96 9c  ADDA A9,B12      A9 := A9+B12+DI0     
0d20: 8690: ae ef  DCA A14          A14--                
0d22: 8691: d1 e0  MLI A14,L0       L0 := [A14]          
0d24: 8692: c9 01  SEDI 01          set DI 0x01          
0d26: 8693: 72 00  CRTA A02,C00     A02 := 0x00          
0d28: 8694: ba aa  SAB A10,B10      A10 <-> B10          
0d2a: 8695: d6 2a  SOTB A2,B10      B10 := A2-B10+DI0    
0d2c: 8696: ba aa  SAB A10,B10      A10 <-> B10          
0d2e: 8697: d6 2a  SOTB A2,B10      B10 := A2-B10+DI0    
0d30: 8698: ba 77  SAB A7,B7        A7 <-> B7            
0d32: 8699: d6 27  SOTB A2,B7       B7 := A2-B7+DI0      
0d34: 869a: ba 77  SAB A7,B7        A7 <-> B7            
0d36: 869b: d6 27  SOTB A2,B7       B7 := A2-B7+DI0      
0d38: 869c: ee 97  LMIP M9,L7       [M9++] := L7         
0d3a: 869d: e1 9a  LMI M9,L10       [M9] := L10          
0d3c: 869e: ae ef  DCA A14          A14--                
0d3e: 869f: d1 e0  MLI A14,L0       L0 := [A14]          
0d40: 86a0: c8 08  REDI 08          reset DI 0x08        
0d42: 86a1: 72 80  CRTA A02,C80     A02 := 0x80          
0d44: 86a2: 6a a5  SAD0 D5,a5       br D5=0,86a5         
0d46: 86a3: c8 01  REDI 01          reset DI 0x01        
0d48: 86a4: a6 22  ADDB A2,B2       B2 := A2+B2+DI0      
0d4a: 86a5: 97 2f  AND A2,B15       A2 and B15           
0d4c: 86a6: 62 ae  SAD0 D1,ae       br D1=0,86ae         
0d4e: 86a7: 97 22  AND A2,B2        A2 and B2            
0d50: 86a8: 62 b2  SAD0 D1,b2       br D1=0,86b2         
0d52: 86a9: 97 27  AND A2,B7        A2 and B7            
0d54: 86aa: 63 b2  SAD1 D1,b2       br D1=1,86b2         
0d56: 86ab: e2 e0  LPMIP A14,L0     [A14++] := ++L0      
0d58: 86ac: 05 2c  SAI 052c         jump 852c            
0d5a: 86ad: 05 28  SAI 0528         jump 8528            
0d5c: 86ae: 97 22  AND A2,B2        A2 and B2            
0d5e: 86af: 63 b2  SAD1 D1,b2       br D1=1,86b2         
0d60: 86b0: 97 27  AND A2,B7        A2 and B7            
0d62: 86b1: 63 ab  SAD1 D1,ab       br D1=1,86ab         
0d64: 86b2: 66 b5  SAD0 D3,b5       br D3=0,86b5         
0d66: 86b3: 69 bc  SAD1 D4,bc       br D4=1,86bc         
0d68: 86b4: 05 24  SAI 0524         jump 8524            
0d6a: 86b5: f5 7f  VRL L7           L7==0                
0d6c: 86b6: 62 bc  SAD0 D1,bc       br D1=0,86bc         
0d6e: 86b7: a5 9f  ICL L9           L9++                 
0d70: 86b8: d1 9b  MLI M9,L11       L11 := [M9]          
0d72: 86b9: f5 bf  VRL L11          L11==0               
0d74: 86ba: 62 bc  SAD0 D1,bc       br D1=0,86bc         
0d76: 86bb: 05 24  SAI 0524         jump 8524            
0d78: 86bc: 97 27  AND A2,B7        A2 and B7            
0d7a: 86bd: 62 bf  SAD0 D1,bf       br D1=0,86bf         
0d7c: 86be: 05 2a  SAI 052a         jump 852a            
0d7e: 86bf: 05 26  SAI 0526         jump 8526            
0d80: 86c0: f5 7f  VRL L7           L7==0                
0d82: 86c1: 62 c8  SAD0 D1,c8       br D1=0,86c8         
0d84: 86c2: a5 9f  ICL L9           L9++                 
0d86: 86c3: d1 97  MLI M9,L7        L7 := [M9]           
0d88: 86c4: f5 7f  VRL L7           L7==0                
0d8a: 86c5: 62 c8  SAD0 D1,c8       br D1=0,86c8         
0d8c: 86c6: 61 ca  SAD1 D0,ca       br D0=1,86ca         
0d8e: 86c7: 05 24  SAI 0524         jump 8524            
0d90: 86c8: 61 cb  SAD1 D0,cb       br D0=1,86cb         
0d92: 86c9: 05 26  SAI 0526         jump 8526            
0d94: 86ca: 05 2a  SAI 052a         jump 852a            
0d96: 86cb: 05 28  SAI 0528         jump 8528            
0d98: 86cc: c9 10  SEDI 10          set DI 0x10          
0d9a: 86cd: de a2  MLIP M10,L2      L2 := [M10++]        
0d9c: 86ce: de 97  MLIP M9,L7       L7 := [M9++]         
0d9e: 86cf: d4 70  SLSA B7          B7 << DI0            
0da0: 86d0: 60 d5  SAD0 D0,d5       br D0=0,86d5         
0da2: 86d1: d4 20  SLSA B2          B2 << DI0            
0da4: 86d2: 61 d9  SAD1 D0,d9       br D0=1,86d9         
0da6: 86d3: 68 ee  SAD0 D4,ee       br D4=0,86ee         
0da8: 86d4: 05 26  SAI 0526         jump 8526            
0daa: 86d5: d4 20  SLSA B2          B2 << DI0            
0dac: 86d6: 60 d9  SAD0 D0,d9       br D0=0,86d9         
0dae: 86d7: 68 ee  SAD0 D4,ee       br D4=0,86ee         
0db0: 86d8: 05 2a  SAI 052a         jump 852a            
0db2: 86d9: ba 27  SAB A2,B7        A2 <-> B7            
0db4: 86da: c9 01  SEDI 01          set DI 0x01          
0db6: 86db: b6 22  SOT A2,B2        A2-B2+DI0            
0db8: 86dc: 62 e8  SAD0 D1,e8       br D1=0,86e8         
0dba: 86dd: b6 77  SOT A7,B7        A7-B7+DI0            
0dbc: 86de: 62 e8  SAD0 D1,e8       br D1=0,86e8         
0dbe: 86df: d1 97  MLI M9,L7        L7 := [M9]           
0dc0: 86e0: d1 a2  MLI M10,L2       L2 := [M10]          
0dc2: 86e1: ba 27  SAB A2,B7        A2 <-> B7            
0dc4: 86e2: b6 22  SOT A2,B2        A2-B2+DI0            
0dc6: 86e3: 62 e8  SAD0 D1,e8       br D1=0,86e8         
0dc8: 86e4: b6 77  SOT A7,B7        A7-B7+DI0            
0dca: 86e5: 62 e8  SAD0 D1,e8       br D1=0,86e8         
0dcc: 86e6: 68 ed  SAD0 D4,ed       br D4=0,86ed         
0dce: 86e7: 05 24  SAI 0524         jump 8524            
0dd0: 86e8: 61 eb  SAD1 D0,eb       br D0=1,86eb         
0dd2: 86e9: 68 ee  SAD0 D4,ee       br D4=0,86ee         
0dd4: 86ea: 05 26  SAI 0526         jump 8526            
0dd6: 86eb: 68 ee  SAD0 D4,ee       br D4=0,86ee         
0dd8: 86ec: 05 2a  SAI 052a         jump 852a            
0dda: 86ed: c8 01  REDI 01          reset DI 0x01        
0ddc: 86ee: 05 a9  SAI 05a9         jump 85a9            
0dde: 86ef: e2 e0  LPMIP A14,L0     [A14++] := ++L0      
0de0: 86f0: 06 00  SAI 0600         jump 8600            
0de2: 86f1: 06 a0  SAI 06a0         jump 86a0            
0de4: 86f2: e2 e0  LPMIP A14,L0     [A14++] := ++L0      
0de6: 86f3: 06 2f  SAI 062f         jump 862f            
0de8: 86f4: 06 a0  SAI 06a0         jump 86a0            
0dea: 86f5: e2 e0  LPMIP A14,L0     [A14++] := ++L0      
0dec: 86f6: 06 00  SAI 0600         jump 8600            
0dee: 86f7: 06 c0  SAI 06c0         jump 86c0            
0df0: 86f8: e2 e0  LPMIP A14,L0     [A14++] := ++L0      
0df2: 86f9: 06 2f  SAI 062f         jump 862f            
0df4: 86fa: 06 c0  SAI 06c0         jump 86c0            
0df6: 86fb: de a7  MLIP M10,L7      L7 := [M10++]        
0df8: 86fc: ee 97  LMIP M9,L7       [M9++] := L7         
0dfa: 86fd: de a7  MLIP M10,L7      L7 := [M10++]        
0dfc: 86fe: ee 97  LMIP M9,L7       [M9++] := L7         
0dfe: 86ff: 07 fb  SAI 07fb         jump 87fb            
0e00: 8700: 5f 02  CRTB B15,C02     B15 := 0x02          
0e02: 8701: de 97  MLIP M9,L7       L7 := [M9++]         
0e04: 8702: de a2  MLIP M10,L2      L2 := [M10++]        
0e06: 8703: ba 27  SAB A2,B7        A2 <-> B7            
0e08: 8704: c9 01  SEDI 01          set DI 0x01          
0e0a: 8705: b6 22  SOT A2,B2        A2-B2+DI0            
0e0c: 8706: 62 0c  SAD0 D1,0c       br D1=0,870c         
0e0e: 8707: c9 01  SEDI 01          set DI 0x01          
0e10: 8708: b6 77  SOT A7,B7        A7-B7+DI0            
0e12: 8709: 62 0c  SAD0 D1,0c       br D1=0,870c         
0e14: 870a: be ff  DCB B15          B15--                
0e16: 870b: 62 01  SAD0 D1,01       br D1=0,8701         
0e18: 870c: d1 00  MLI M0,L0        L0 := [M0]           
0e1a: 870d: a0 f7  ICD1 D7,L7       L7++ if D7=1         
0e1c: 870e: 5d 00  CRTB B13,C00     B13 := 0x00          
0e1e: 870f: f5 2f  VRL L2           L2==0                
0e20: 8710: 62 12  SAD0 D1,12       br D1=0,8712         
0e22: 8711: 07 4b  SAI 074b         jump 874b            
0e24: 8712: de 07  MLIP M0,L7       L7 := [M0++]         
0e26: 8713: 00 b8  SAI 00b8         jump 80b8            
0e28: 8714: ee 78  LMIP M7,L8       [M7++] := L8         
0e2a: 8715: ee 79  LMIP M7,L9       [M7++] := L9         
0e2c: 8716: e1 7b  LMI M7,L11       [M7] := L11          
0e2e: 8717: de 08  MLIP M0,L8       L8 := [M0++]         
0e30: 8718: 87 50  ORB A5,B0        B0 := A5 or B0       
0e32: 8719: 5e 04  CRTB B14,C04     B14 := 0x04          
0e34: 871a: de 09  MLIP M0,L9       L9 := [M0++]         
0e36: 871b: 03 00  SAI 0300         jump 8300            
0e38: 871c: c8 08  REDI 08          reset DI 0x08        
0e3a: 871d: dd 8b  MLIM M8,L11      L11 := [M8--]        
0e3c: 871e: 07 21  SAI 0721         jump 8721            
0e3e: 871f: d3 b0  SLDB B11         B11 >> DI0           
0e40: 8720: c3 b1  SLDA A11,C1      A11 >> DI0           
0e42: 8721: d8 b7  TAB A11,B7       B7 := A11            
0e44: 8722: e9 7b  TBA A7,B11       A7 := B11            
0e46: 8723: c9 01  SEDI 01          set DI 0x01          
0e48: 8724: d6 27  SOTB A2,B7       B7 := A2-B7+DI0      
0e4a: 8725: ba 72  SAB A7,B2        A7 <-> B2            
0e4c: 8726: d6 72  SOTB A7,B2       B2 := A7-B2+DI0      
0e4e: 8727: 61 2a  SAD1 D0,2a       br D0=1,872a         
0e50: 8728: ba 72  SAB A7,B2        A7 <-> B2            
0e52: 8729: 07 2b  SAI 072b         jump 872b            
0e54: 872a: e9 27  TBA A2,B7        A2 := B7             
0e56: 872b: c4 91  SLSA A9,C1       A9 << DI0            
0e58: 872c: be 9f  DCB B9           B9--                 
0e5a: 872d: 62 1f  SAD0 D1,1f       br D1=0,871f         
0e5c: 872e: 9e df  VRB B13          B13==0               
0e5e: 872f: 62 33  SAD0 D1,33       br D1=0,8733         
0e60: 8730: 8e 9f  VRA A9           A9==0                
0e62: 8731: 62 33  SAD0 D1,33       br D1=0,8733         
0e64: 8732: 07 39  SAI 0739         jump 8739            
0e66: 8733: 95 df  ICB B13          B13++                
0e68: 8734: 67 37  SAD1 D3,37       br D3=1,8737         
0e6a: 8735: c9 08  SEDI 08          set DI 0x08          
0e6c: 8736: 07 39  SAI 0739         jump 8739            
0e6e: 8737: 88 a9  AMIP M10,A9      [M10++] := A9        
0e70: 8738: c8 08  REDI 08          reset DI 0x08        
0e72: 8739: be ef  DCB B14          B14--                
0e74: 873a: 63 3d  SAD1 D1,3d       br D1=1,873d         
0e76: 873b: 59 04  CRTB B09,C04     B09 := 0x04          
0e78: 873c: 07 1d  SAI 071d         jump 871d            
0e7a: 873d: 95 df  ICB B13          B13++                
0e7c: 873e: 67 42  SAD1 D3,42       br D3=1,8742         
0e7e: 873f: 8b 2f  ROTA A2          A2.M <-> A2.P        
0e80: 8740: 88 a2  AMIP M10,A2      [M10++] := A2        
0e82: 8741: 07 46  SAI 0746         jump 8746            
0e84: 8742: 8b 9f  ROTA A9          A9.M <-> A9.P        
0e86: 8743: d8 99  TAB A9,B9        B9 := A9             
0e88: 8744: e8 29  TABM A2,B9       B9.M := A2.M         
0e8a: 8745: 8c a9  BMIP M10,A9      [M10++] := A9        
0e8c: 8746: de 07  MLIP M0,L7       L7 := [M0++]         
0e8e: 8747: 00 b8  SAI 00b8         jump 80b8            
0e90: 8748: de 78  MLIP M7,L8       L8 := [M7++]         
0e92: 8749: de 79  MLIP M7,L9       L9 := [M7++]         
0e94: 874a: d1 7b  MLI M7,L11       L11 := [M7]          
0e96: 874b: ae ef  DCA A14          A14--                
0e98: 874c: d1 e0  MLI A14,L0       L0 := [A14]          
0e9a: 874d: 00 50  SAI 0050         jump 8050            
0e9c: 874e: 03 20  SAI 0320         jump 8320            
0e9e: 874f: 1f 40  SAI 1f40         jump 9f40            
0ea0: 8750: 9c 40  MBIP M4,B0       B0 := [M4++]         
0ea2: 8751: d8 2f  TAB A2,B15       B15 := A2            
0ea4: 8752: e2 e0  LPMIP A14,L0     [A14++] := ++L0      
0ea6: 8753: 05 1e  SAI 051e         jump 851e            
0ea8: 8754: 9c a2  MBIP M10,B2      B2 := [M10++]        
0eaa: 8755: 91 a2  MAI M10,A2       A2 := [M10]          
0eac: 8756: de 0a  MLIP M0,L10      L10 := [M0++]        
0eae: 8757: 01 30  SAI 0130         jump 8130            
0eb0: 8758: e2 e0  LPMIP A14,L0     [A14++] := ++L0      
0eb2: 8759: 07 0e  SAI 070e         jump 870e            
0eb4: 875a: e9 7d  TBA A7,B13       A7 := B13            
0eb6: 875b: c8 01  REDI 01          reset DI 0x01        
0eb8: 875c: b6 7f  SOT A7,B15       A7-B15+DI0           
0eba: 875d: 60 62  SAD0 D0,62       br D0=0,8762         
0ebc: 875e: e9 7f  TBA A7,B15       A7 := B15            
0ebe: 875f: d8 7d  TAB A7,B13       B13 := A7            
0ec0: 8760: 72 31  CRTA A02,C31     A02 := 0x31          
0ec2: 8761: 07 64  SAI 0764         jump 8764            
0ec4: 8762: d8 7f  TAB A7,B15       B15 := A7            
0ec6: 8763: 72 08  CRTA A02,C08     A02 := 0x08          
0ec8: 8764: de 0a  MLIP M0,L10      L10 := [M0++]        
0eca: 8765: 01 30  SAI 0130         jump 8130            
0ecc: 8766: 9e df  VRB B13          B13==0               
0ece: 8767: 62 6b  SAD0 D1,6b       br D1=0,876b         
0ed0: 8768: 89 ad  BMI M10,A13      [M10] := A13         
0ed2: 8769: 95 df  ICB B13          B13++                
0ed4: 876a: 5f 01  CRTB B15,C01     B15 := 0x01          
0ed6: 876b: c8 08  REDI 08          reset DI 0x08        
0ed8: 876c: e2 e0  LPMIP A14,L0     [A14++] := ++L0      
0eda: 876d: 07 72  SAI 0772         jump 8772            
0edc: 876e: 22 ec  AMD A02,Cec      [ec] := A2           
0ede: 876f: de 0a  MLIP M0,L10      L10 := [M0++]        
0ee0: 8770: 02 c3  SAI 02c3         jump 82c3            
0ee2: 8771: 07 fa  SAI 07fa         jump 87fa            
0ee4: 8772: 77 33  CRTA A07,C33     A07 := 0x33          
0ee6: 8773: 9e df  VRB B13          B13==0               
0ee8: 8774: 63 88  SAD1 D1,88       br D1=1,8788         
0eea: 8775: be df  DCB B13          B13--                
0eec: 8776: 67 7e  SAD1 D3,7e       br D3=1,877e         
0eee: 8777: 99 a2  MBI M10,B2       B2 := [M10]          
0ef0: 8778: 9b 2f  ROTB B2          B2.M <-> B2.P        
0ef2: 8779: f9 72  TBAM A7,B2       A7.M := B2.M         
0ef4: 877a: 88 97  AMIP M9,A7       [M9++] := A7         
0ef6: 877b: 9e df  VRB B13          B13==0               
0ef8: 877c: 63 87  SAD1 D1,87       br D1=1,8787         
0efa: 877d: be df  DCB B13          B13--                
0efc: 877e: 9c a2  MBIP M10,B2      B2 := [M10++]        
0efe: 877f: f9 72  TBAM A7,B2       A7.M := B2.M         
0f00: 8780: 88 97  AMIP M9,A7       [M9++] := A7         
0f02: 8781: 9e df  VRB B13          B13==0               
0f04: 8782: 63 85  SAD1 D1,85       br D1=1,8785         
0f06: 8783: be df  DCB B13          B13--                
0f08: 8784: 07 77  SAI 0777         jump 8777            
0f0a: 8785: c8 08  REDI 08          reset DI 0x08        
0f0c: 8786: 07 88  SAI 0788         jump 8788            
0f0e: 8787: c9 08  SEDI 08          set DI 0x08          
0f10: 8788: ae ef  DCA A14          A14--                
0f12: 8789: d1 e0  MLI A14,L0       L0 := [A14]          
0f14: 878a: e9 2f  TBA A2,B15       A2 := B15            
0f16: 878b: d8 2d  TAB A2,B13       B13 := A2            
0f18: 878c: 5f 00  CRTB B15,C00     B15 := 0x00          
0f1a: 878d: c9 01  SEDI 01          set DI 0x01          
0f1c: 878e: c6 2c  SOTA A2,B12      A2 := A2-B12+DI0     
0f1e: 878f: 60 96  SAD0 D0,96       br D0=0,8796         
0f20: 8790: d8 2f  TAB A2,B15       B15 := A2            
0f22: 8791: e9 2c  TBA A2,B12       A2 := B12            
0f24: 8792: d8 2d  TAB A2,B13       B13 := A2            
0f26: 8793: e2 e0  LPMIP A14,L0     [A14++] := ++L0      
0f28: 8794: 07 72  SAI 0772         jump 8772            
0f2a: 8795: 07 a1  SAI 07a1         jump 87a1            
0f2c: 8796: e2 e0  LPMIP A14,L0     [A14++] := ++L0      
0f2e: 8797: 07 72  SAI 0772         jump 8772            
0f30: 8798: 5f ff  CRTB B15,Cff     B15 := 0xff          
0f32: 8799: e7 2f  OREB A2,B15      B15 := A2 xor B15    
0f34: 879a: 95 ff  ICB B15          B15++                
0f36: 879b: 52 30  CRTB B02,C30     B02 := 0x30          
0f38: 879c: 9e ff  VRB B15          B15==0               
0f3a: 879d: 63 a1  SAD1 D1,a1       br D1=1,87a1         
0f3c: 879e: 8c 92  BMIP M9,A2       [M9++] := A2         
0f3e: 879f: be ff  DCB B15          B15--                
0f40: 87a0: 62 9e  SAD0 D1,9e       br D1=0,879e         
0f42: 87a1: ae ef  DCA A14          A14--                
0f44: 87a2: d1 e0  MLI A14,L0       L0 := [A14]          
0f46: 87a3: de a7  MLIP M10,L7      L7 := [M10++]        
0f48: 87a4: d1 aa  MLI M10,L10      L10 := [M10]         
0f4a: 87a5: 72 80  CRTA A02,C80     A02 := 0x80          
0f4c: 87a6: 97 27  AND A2,B7        A2 and B7            
0f4e: 87a7: 62 d0  SAD0 D1,d0       br D1=0,87d0         
0f50: 87a8: ee 97  LMIP M9,L7       [M9++] := L7         
0f52: 87a9: e1 9a  LMI M9,L10       [M9] := L10          
0f54: 87aa: f5 7f  VRL L7           L7==0                
0f56: 87ab: 62 af  SAD0 D1,af       br D1=0,87af         
0f58: 87ac: f5 af  VRL L10          L10==0               
0f5a: 87ad: 62 af  SAD0 D1,af       br D1=0,87af         
0f5c: 87ae: 05 24  SAI 0524         jump 8524            
0f5e: 87af: 05 2a  SAI 052a         jump 852a            
0f60: 87b0: de a7  MLIP M10,L7      L7 := [M10++]        
0f62: 87b1: d1 aa  MLI M10,L10      L10 := [M10]         
0f64: 87b2: 72 80  CRTA A02,C80     A02 := 0x80          
0f66: 87b3: 97 27  AND A2,B7        A2 and B7            
0f68: 87b4: 62 c1  SAD0 D1,c1       br D1=0,87c1         
0f6a: 87b5: f5 7f  VRL L7           L7==0                
0f6c: 87b6: 62 b9  SAD0 D1,b9       br D1=0,87b9         
0f6e: 87b7: f5 af  VRL L10          L10==0               
0f70: 87b8: 63 ca  SAD1 D1,ca       br D1=1,87ca         
0f72: 87b9: e2 e0  LPMIP A14,L0     [A14++] := ++L0      
0f74: 87ba: 06 92  SAI 0692         jump 8692            
0f76: 87bb: 05 26  SAI 0526         jump 8526            
0f78: 87bc: de a7  MLIP M10,L7      L7 := [M10++]        
0f7a: 87bd: d1 aa  MLI M10,L10      L10 := [M10]         
0f7c: 87be: 72 80  CRTA A02,C80     A02 := 0x80          
0f7e: 87bf: 97 27  AND A2,B7        A2 and B7            
0f80: 87c0: 63 a8  SAD1 D1,a8       br D1=1,87a8         
0f82: 87c1: ee 97  LMIP M9,L7       [M9++] := L7         
0f84: 87c2: e1 9a  LMI M9,L10       [M9] := L10          
0f86: 87c3: 05 26  SAI 0526         jump 8526            
0f88: 87c4: de a7  MLIP M10,L7      L7 := [M10++]        
0f8a: 87c5: d1 aa  MLI M10,L10      L10 := [M10]         
0f8c: 87c6: f5 7f  VRL L7           L7==0                
0f8e: 87c7: 62 cd  SAD0 D1,cd       br D1=0,87cd         
0f90: 87c8: f5 af  VRL L10          L10==0               
0f92: 87c9: 62 cd  SAD0 D1,cd       br D1=0,87cd         
0f94: 87ca: ee 97  LMIP M9,L7       [M9++] := L7         
0f96: 87cb: e1 9a  LMI M9,L10       [M9] := L10          
0f98: 87cc: 05 24  SAI 0524         jump 8524            
0f9a: 87cd: 72 80  CRTA A02,C80     A02 := 0x80          
0f9c: 87ce: 97 27  AND A2,B7        A2 and B7            
0f9e: 87cf: 63 b9  SAD1 D1,b9       br D1=1,87b9         
0fa0: 87d0: f5 af  VRL L10          L10==0               
0fa2: 87d1: 62 d9  SAD0 D1,d9       br D1=0,87d9         
0fa4: 87d2: 8e 7f  VRA A7           A7==0                
0fa6: 87d3: 62 d9  SAD0 D1,d9       br D1=0,87d9         
0fa8: 87d4: c7 27  ORE A2,B7        A2 xor B7            
0faa: 87d5: 62 d9  SAD0 D1,d9       br D1=0,87d9         
0fac: 87d6: e2 e0  LPMIP A14,L0     [A14++] := ++L0      
0fae: 87d7: 05 2c  SAI 052c         jump 852c            
0fb0: 87d8: 05 28  SAI 0528         jump 8528            
0fb2: 87d9: e2 e0  LPMIP A14,L0     [A14++] := ++L0      
0fb4: 87da: 06 92  SAI 0692         jump 8692            
0fb6: 87db: 05 2a  SAI 052a         jump 852a            
0fb8: 87dc: 60 de  SAD0 D0,de       br D0=0,87de         
0fba: 87dd: 05 22  SAI 0522         jump 8522            
0fbc: 87de: d1 a2  MLI M10,L2       L2 := [M10]          
0fbe: 87df: d4 20  SLSA B2          B2 << DI0            
0fc0: 87e0: de 02  MLIP M0,L2       L2 := [M0++]         
0fc2: 87e1: ff ff                                        
0fc4: 87e2: 61 e4  SAD1 D0,e4       br D0=1,87e4         
0fc6: 87e3: a5 2f  ICL L2           L2++                 
0fc8: 87e4: c9 10  SEDI 10          set DI 0x10          
0fca: 87e5: 06 ce  SAI 06ce         jump 86ce            
0fcc: 87e6: 60 e8  SAD0 D0,e8       br D0=0,87e8         
0fce: 87e7: 05 22  SAI 0522         jump 8522            
0fd0: 87e8: d1 a7  MLI M10,L7       L7 := [M10]          
0fd2: 87e9: de 0b  MLIP M0,L11      L11 := [M0++]        
0fd4: 87ea: ff ff                                        
0fd6: 87eb: 72 80  CRTA A02,C80     A02 := 0x80          
0fd8: 87ec: 97 27  AND A2,B7        A2 and B7            
0fda: 87ed: 62 ef  SAD0 D1,ef       br D1=0,87ef         
0fdc: 87ee: a5 bf  ICL L11          L11++                
0fde: 87ef: de 0a  MLIP M0,L10      L10 := [M0++]        
0fe0: 87f0: 00 c8  SAI 00c8         jump 80c8            
0fe2: 87f1: e1 ab  LMI M10,L11      [M10] := L11         
0fe4: 87f2: d3 20  SLDB B2          B2 >> DI0            
0fe6: 87f3: 60 f7  SAD0 D0,f7       br D0=0,87f7         
0fe8: 87f4: e2 e0  LPMIP A14,L0     [A14++] := ++L0      
0fea: 87f5: 06 31  SAI 0631         jump 8631            
0fec: 87f6: 06 a0  SAI 06a0         jump 86a0            
0fee: 87f7: e2 e0  LPMIP A14,L0     [A14++] := ++L0      
0ff0: 87f8: 06 02  SAI 0602         jump 8602            
0ff2: 87f9: 06 a0  SAI 06a0         jump 86a0            
0ff4: 87fa: 89 af  BMI M10,A15      [M10] := A15         
0ff6: 87fb: d1 00  MLI M0,L0        L0 := [M0]           
0ff8: 87fc: a0 f0  ICD1 D7,L0       L0++ if D7=1         
0ffa: 87fd: c9 00  SEDI 00          set DI 0x00          
0ffc: 87fe: e7 ea  OREB A14,B10     B10 := A14 xor B10   
0ffe: 87ff: 0c f6  SAI 0cf6         jump 8cf6            
